ccollections
defaultdict
p0
(cdill.dill
_create_function
p1
(cdill.dill
_unmarshal
p2
(S'c\x00\x00\x00\x00\x00\x00\x00\x00\x01\x00\x00\x00\x13 \x00\x00s\x04\x00\x00\x00\x88\x00\x00S(\x01\x00\x00\x00N(\x00\x00\x00\x00(\x00\x00\x00\x00(\x01\x00\x00\x00t\x10\x00\x00\x00zero_count_probs(\x00\x00\x00\x00s\t\x00\x00\x00txtgen.pyt\x08\x00\x00\x00<lambda>\xac\x00\x00\x00t\x00\x00\x00\x00'
p3
tp4
Rp5
ctxtgen
__dict__
S'<lambda>'
p6
N(cdill.dill
_create_cell
p7
(F1.0
tp8
Rp9
tp10
(dp11
tp12
Rp13
tp14
Rp15
S'to me that'
p16
F0.16666666666666666
sS'at either side'
p17
F1.0
sS'evil one might'
p18
F1.0
sS'" a terrific'
p19
F0.3333333333333333
sS'on it and'
p20
F0.25
sS'trembled. what magic'
p21
F1.0
sS', the open'
p22
F0.1111111111111111
sS'from the ground'
p23
F0.06666666666666667
sS'church teaches all'
p24
F1.0
sS'darkness ! lights'
p25
F1.0
sS'work of sorcery'
p26
F1.0
sS'streets. countless ground-vehicles'
p27
F1.0
sS'the ship seemed'
p28
F0.25
sS'be proof ?'
p29
F1.0
sS'showed men of'
p30
F1.0
sS"gentlemen , '"
p31
F1.0
sS'seized him and'
p32
F1.0
sS'a word or'
p33
F0.3333333333333333
sS'of your black'
p34
F0.5
sS'to the other.'
p35
F0.058823529411764705
sS'from it in'
p36
F0.25
sS'tossing and roaring'
p37
F1.0
sS'strength , altogether'
p38
F1.0
sS'one , rastin'
p39
F0.3333333333333333
sS'through the door'
p40
F0.16666666666666666
sS'but that all'
p41
F1.0
sS'third day of'
p42
F1.0
sS'had been caused'
p43
F0.14285714285714285
sS'the rushing vehicles'
p44
F1.0
sS'quickly with the'
p45
F1.0
sS'the sorcerer causing'
p46
F1.0
sS'paris was indeed'
p47
F1.0
sS"'but if they"
p48
F1.0
sS'" they all'
p49
F0.125
sS'city of my'
p50
F0.25
sS'have jerked you'
p51
F1.0
sS'shouted the plump-faced'
p52
F1.0
sS'even one of'
p53
F1.0
sS'of these sheets'
p54
F0.16666666666666666
sS'sheets of glass'
p55
F0.5
sS'hundred and forty-four'
p56
F1.0
sS'water in great'
p57
F1.0
sS'or peasants. all'
p58
F1.0
sS'from the distant'
p59
F0.06666666666666667
sS'of power since'
p60
F1.0
sS'to the metal'
p61
F0.058823529411764705
sS'said to the'
p62
F1.0
sS'cried out as'
p63
F0.5
sS'and in it'
p64
F0.25
sS'asked the whitebeard'
p65
F1.0
sS'the room were'
p66
F0.3333333333333333
sS"'and rastin and"
p67
F1.0
sS'reverence that i'
p68
F1.0
sS'by a sorcerer'
p69
F1.0
sS'we came to'
p70
F1.0
sS"it , '"
p71
F0.14285714285714285
sS"asked. 'for the"
p72
F1.0
sS'now do so'
p73
F1.0
sS'the lightning ,'
p74
F0.5
sS'my head. they'
p75
F0.5
sS'i stood there'
p76
F1.0
sS'a terrific clap'
p77
F1.0
sS'room of which'
p78
F1.0
sS'had vanished. the'
p79
F1.0
sS'said quietly ,'
p80
F1.0
sS'from a distant'
p81
F1.0
sS'of the lightning'
p82
F0.03125
sS'" i went'
p83
F0.1111111111111111
sS'man. he had'
p84
F1.0
sS'which i was.'
p85
F0.25
sS'field , though'
p86
F0.25
sS'rolled swiftly forward'
p87
F1.0
sS'are simply scientists'
p88
F1.0
sS'fervor as he'
p89
F1.0
sS'it turned faster'
p90
F1.0
sS'still talking excitedly'
p91
F1.0
sS'some appeared to'
p92
F1.0
sS"smiled. 'you don"
p93
F1.0
sS'hose. his dark'
p94
F1.0
sS'i was terribly'
p95
F0.09090909090909091
sS'like water in'
p96
F1.0
sS'took me forward'
p97
F0.5
sS'face held a'
p98
F1.0
sS'the way in'
p99
F1.0
sS'great flat and'
p100
F1.0
sS'that two men'
p101
F1.0
sS'said. " that'
p102
F0.2
sS'field , to'
p103
F0.25
sS'the field heard'
p104
F0.125
sS'still believe yourself'
p105
F1.0
sS'went gravely on'
p106
F1.0
sS'the ship was'
p107
F0.25
sS'where first i'
p108
F1.0
sS'wire connected them'
p109
F1.0
sS'and that only'
p110
F0.1111111111111111
sS'they were evidently'
p111
F0.09090909090909091
sS'live beneath the'
p112
F1.0
sS'i wish well'
p113
F1.0
sS'hear of their'
p114
F1.0
sS'of it ,'
p115
F1.0
sS'mere chasms between'
p116
F1.0
sS"' he repeated."
p117
F0.16666666666666666
sS'that part of'
p118
F1.0
sS', raised his'
p119
F1.0
sS'the ground was'
p120
F0.25
sS'there were other'
p121
F0.14285714285714285
sS'like the two'
p122
F1.0
sS'sea , seemingly'
p123
F1.0
sS'rastin finally. "'
p124
F1.0
sS'outskirts. i could'
p125
F1.0
sS', and we'
p126
F0.025
sS'inside , dancing'
p127
F0.5
sS'in it and'
p128
F0.3333333333333333
sS'sheets of very'
p129
F0.5
sS'said , but'
p130
F0.5
sS'great in size'
p131
F1.0
sS'get someone living'
p132
F1.0
sS'quietly , "'
p133
F1.0
sS', you have'
p134
F0.25
sS'above the streets'
p135
F0.3333333333333333
sS'the servants of'
p136
F1.0
sS'so might matter'
p137
F1.0
sS"was faked. '"
p138
F1.0
sS'words. " they'
p139
F1.0
sS'spoke to me'
p140
F0.5
sS'that henri lothiere'
p141
F1.0
sS'wine , at'
p142
F1.0
sS'ways were mere'
p143
F1.0
sS'the mechanisms grew'
p144
F0.5
sS'sailing to and'
p145
F1.0
sS', and they'
p146
F0.025
sS'to the devil'
p147
F0.058823529411764705
sS'mechanisms in the'
p148
F1.0
sS'be discovered. "'
p149
F1.0
sS'pictures of people'
p150
F1.0
sS'in the building.'
p151
F0.04
sS'the broad stone'
p152
F1.0
sS'for miles through'
p153
F1.0
sS'they all stared'
p154
F0.5
sS'it. then the'
p155
F1.0
sS'downward and upward'
p156
F1.0
sS'the morning of'
p157
F1.0
sS"' the plump"
p158
F0.5
sS'of these vehicles'
p159
F0.16666666666666666
sS'cathedral at first'
p160
F1.0
sS'near the field'
p161
F1.0
sS'things be ,'
p162
F1.0
sS'mighty city on'
p163
F0.3333333333333333
sS'the skies that'
p164
F1.0
sS'white-walled room where'
p165
F1.0
sS'not wear a'
p166
F1.0
sS'view. " sire'
p167
F1.0
sS'years in the'
p168
F1.0
sS'lever. all in'
p169
F1.0
sS'the latter regarded'
p170
F0.5
sS'strange a fashion.'
p171
F1.0
sS'-- \' "'
p172
F0.5
sS'what we used'
p173
F1.0
sS'to another room'
p174
F0.3333333333333333
sS'far beneath narrow'
p175
F0.3333333333333333
sS'there came suddenly'
p176
F0.5
sS'" \'they will'
p177
F1.0
sS'being so strange'
p178
F1.0
sS', my friend'
p179
F0.5
sS'dirt streets --'
p180
F1.0
sS'all were quiet'
p181
F0.3333333333333333
sS'of people ,'
p182
F0.5
sS'either side ,'
p183
F0.5
sS'-- " *'
p184
F1.0
sS'it to the'
p185
F1.0
sS'who want to'
p186
F1.0
sS"'is not time"
p187
F1.0
sS'! we stopped'
p188
F1.0
sS'my neighbors. i'
p189
F1.0
sS'knowledge hidden from'
p190
F1.0
sS'always hoped to'
p191
F1.0
sS'did not wear'
p192
F0.16666666666666666
sS', and other'
p193
F0.025
sS'the one in'
p194
F0.3333333333333333
sS'i cannot change'
p195
F0.5
sS'was seen by'
p196
F0.5
sS'heard , but'
p197
F1.0
sS'i felt myself'
p198
F0.25
sS'my clothes ,'
p199
F1.0
sS'myself bumping upon'
p200
F1.0
sS'somehow i did'
p201
F1.0
sS'stepped before the'
p202
F1.0
sS'again their building'
p203
F0.5
sS'was vast inside'
p204
F1.0
sS'clearly , and'
p205
F1.0
sS'" \'we \'ll'
p206
F0.5
sS'of sorcery thus'
p207
F1.0
sS'and speak to'
p208
F1.0
sS'walls were smooth'
p209
F1.0
sS'appear at the'
p210
F1.0
sS'of the thing'
p211
F0.03125
sS"terrible -- '"
p212
F1.0
sS'and that our'
p213
F0.1111111111111111
sS'tense and i'
p214
F1.0
sS'window into strange'
p215
F1.0
sS'the ground ,'
p216
F0.25
sS'so strange and'
p217
F1.0
sS'might be learned.'
p218
F0.3333333333333333
sS"devils ? '"
p219
F1.0
sS'asked rastin ,'
p220
F1.0
sS'the future ,'
p221
F0.25
sS'walls , and'
p222
F1.0
sS'he mused. "'
p223
F1.0
sS'lives in seeking'
p224
F1.0
sS'they went with'
p225
F0.5
sS'in an instant'
p226
F1.0
sS'it was french'
p227
F0.045454545454545456
sS'! they told'
p228
F0.5
sS'before. " its'
p229
F1.0
sS'and buttons of'
p230
F0.5
sS'our time ,'
p231
F1.0
sS'to this one'
p232
F0.5
sS'the men in'
p233
F0.5
sS'thrilling excitement held'
p234
F1.0
sS'felt , and'
p235
F1.0
sS'his face held'
p236
F0.5
sS'pen to the'
p237
F1.0
sS'must work ever'
p238
F1.0
sS'how , by'
p239
F0.5
sS'and then our'
p240
F0.1
sS'light and to'
p241
F1.0
sS'for a sorcerer'
p242
F0.5
sS'did not fear'
p243
F0.16666666666666666
sS'this fellow !'
p244
F1.0
sS'turn that wheel'
p245
F1.0
sS'in the ceiling.'
p246
F0.04
sS'things that they'
p247
F0.16666666666666666
sS'i had worn'
p248
F0.05263157894736842
sS'june was seen'
p249
F1.0
sS'explaining how he'
p250
F1.0
sS'watching , vanished'
p251
F1.0
sS'but mists hid'
p252
F1.0
sS'that day i'
p253
F1.0
sS'it a cathedral'
p254
F0.5
sS'steel statues by'
p255
F1.0
sS'mother of god'
p256
F1.0
sS'then our winged'
p257
F1.0
sS'_of the future_.'
p258
F1.0
sS'seemed quite ignorant'
p259
F1.0
sS'answering him !'
p260
F1.0
sS'in a maze'
p261
F0.14285714285714285
sS'of the inquisitor.'
p262
F0.03125
sS'matter from one'
p263
F1.0
sS'thought , was'
p264
F1.0
sS'in palliation of'
p265
F1.0
sS'by the changing'
p266
F0.5
sS'this now ,'
p267
F1.0
sS'an instant in'
p268
F0.5
sS'centuries in the'
p269
F1.0
sS'shape that they'
p270
F1.0
sS'which rastin and'
p271
F1.0
sS'was on it'
p272
F0.5
sS'on me as'
p273
F1.0
sS'a soft leather'
p274
F1.0
sS'street. it had'
p275
F1.0
sS'" that set'
p276
F1.0
sS', altogether different'
p277
F1.0
sS'giant metal things'
p278
F1.0
sS'was like looking'
p279
F0.5
sS'another , too'
p280
F0.3333333333333333
sS'in them all'
p281
F0.3333333333333333
sS'i looked up'
p282
F0.2
sS'i had yet'
p283
F0.05263157894736842
sS'to you ,'
p284
F0.5
sS', i opened'
p285
F0.08333333333333333
sS'\' " both'
p286
F0.08333333333333333
sS'tunic and hose'
p287
F0.5
sS'heavy hinges from'
p288
F1.0
sS'that i could'
p289
F0.1
sS'the king ,'
p290
F0.3333333333333333
sS'watched around the'
p291
F1.0
sS'had tried it'
p292
F1.0
sS'may bring in'
p293
F1.0
sS'are you from'
p294
F1.0
sS'before they seized'
p295
F1.0
sS'ship as i'
p296
F1.0
sS'sorcery. upon that'
p297
F1.0
sS'great claps of'
p298
F1.0
sS'" \'you believe'
p299
F0.3333333333333333
sS'miles through them'
p300
F1.0
sS'street between the'
p301
F1.0
sS'lit brightly now'
p302
F1.0
sS'seemed , and'
p303
F1.0
sS'and a blasphemer'
p304
F0.2
sS'or breadth or'
p305
F1.0
sS'soldiers , and'
p306
F1.0
sS'i understood him'
p307
F1.0
sS'a great circle'
p308
F0.14285714285714285
sS"'where are you"
p309
F1.0
sS'by what i'
p310
F1.0
sS'once , as'
p311
F0.5
sS', did in'
p312
F1.0
sS'thought it was'
p313
F0.5
sS'spot when they'
p314
F1.0
sS'to you the'
p315
F0.5
sS'sirs , whoever'
p316
F1.0
sS'want to see'
p317
F0.25
sS'you , rastin'
p318
F0.25
sS'de marselait ,'
p319
F0.3333333333333333
sS'how can i'
p320
F1.0
sS'the ground into'
p321
F0.25
sS'not understand. it'
p322
F0.25
sS'was of stone'
p323
F1.0
sS'that place of'
p324
F1.0
sS'do i wish'
p325
F1.0
sS'written in them'
p326
F1.0
sS'latter regarded the'
p327
F1.0
sS'one as i'
p328
F1.0
sS'blasphemer , and'
p329
F1.0
sS'that morning of'
p330
F1.0
sS'were gazing ,'
p331
F0.5
sS'were healers ,'
p332
F1.0
sS'fast , turning'
p333
F1.0
sS'at the spot'
p334
F0.07692307692307693
sS'let me hear'
p335
F1.0
sS'bumping on the'
p336
F1.0
sS'were not of'
p337
F1.0
sS'found time to'
p338
F1.0
sS'in seats beside'
p339
F0.5
sS'] he was'
p340
F1.0
sS'and fervor as'
p341
F1.0
sS'cabins on its'
p342
F1.0
sS'your black offense'
p343
F1.0
sS'was lit brightly'
p344
F1.0
sS'you , sire.'
p345
F0.25
sS'they had rotated'
p346
F0.14285714285714285
sS'so fast that'
p347
F1.0
sS'heard the thunderclap'
p348
F0.3333333333333333
sS'move as he'
p349
F1.0
sS'and fro for'
p350
F0.14285714285714285
sS'rastin told me'
p351
F1.0
sS'a one as'
p352
F1.0
sS'smoke going up'
p353
F1.0
sS'walked stepped before'
p354
F1.0
sS'small lads ran'
p355
F1.0
sS', " was'
p356
F0.25
sS'neither of them'
p357
F1.0
sS'the endless streets.'
p358
F1.0
sS'of the devil.'
p359
F0.03125
sS'at first but'
p360
F1.0
sS'rastin and thicourt'
p361
F0.3333333333333333
sS'spot with certain'
p362
F1.0
sS'ground at the'
p363
F1.0
sS'tapering to a'
p364
F1.0
sS'man was his'
p365
F0.3333333333333333
sS'power , he'
p366
F1.0
sS'the other in'
p367
F0.14285714285714285
sS'earth as much'
p368
F1.0
sS'moment before. i'
p369
F1.0
sS'sprang forward. "'
p370
F1.0
sS'great mountain-like buildings'
p371
F1.0
sS'i passed from'
p372
F1.0
sS'another man between'
p373
F1.0
sS'dazed i was'
p374
F1.0
sS'used. they said'
p375
F1.0
sS'from the mighty'
p376
F0.06666666666666667
sS'then another scene'
p377
F1.0
sS'-- einstein and'
p378
F1.0
sS'i must go'
p379
F0.5
sS'they wore loose'
p380
F1.0
sS'head. they led'
p381
F1.0
sS', like rastin'
p382
F1.0
sS'along that street.'
p383
F1.0
sS'to know as'
p384
F0.25
sS', to desire'
p385
F0.125
sS'" there was'
p386
F0.5
sS'language. i could'
p387
F1.0
sS', and darkness'
p388
F0.025
sS'men and oxen'
p389
F1.0
sS'through the hellish'
p390
F0.16666666666666666
sS"them , '"
p391
F0.2
sS'enough , and'
p392
F1.0
sS'you know that'
p393
F1.0
sS'so that i'
p394
F1.0
sS'falling at the'
p395
F1.0
sS'could the dead'
p396
F1.0
sS'i shrank back'
p397
F1.0
sS'terrific , and'
p398
F1.0
sS'his head from'
p399
F1.0
sS'cause might be'
p400
F1.0
sS'your clothes --'
p401
F1.0
sS'steadily. the thunder'
p402
F1.0
sS', while at'
p403
F1.0
sS'" rastin and'
p404
F0.3333333333333333
sS'spend much time'
p405
F1.0
sS'me , first'
p406
F0.1111111111111111
sS'moving as though'
p407
F1.0
sS'brought a small'
p408
F1.0
sS'streets were of'
p409
F1.0
sS'each other as'
p410
F0.5
sS'me , stunning'
p411
F0.1111111111111111
sS'rock , yet'
p412
F1.0
sS'was all too'
p413
F1.0
sS'and again their'
p414
F1.0
sS'forbidden. " i'
p415
F1.0
sS'that none challenged'
p416
F0.5
sS'the great thunderclap'
p417
F0.25
sS'air like this'
p418
F1.0
sS'they had always'
p419
F0.14285714285714285
sS'of voices ,'
p420
F1.0
sS'city was not'
p421
F1.0
sS'vanish entirely from'
p422
F1.0
sS'" \'he does'
p423
F0.5
sS'and two of'
p424
F1.0
sS'they had again'
p425
F0.14285714285714285
sS'i had vanished'
p426
F0.05263157894736842
sS'was late afternoon'
p427
F1.0
sS'and they had'
p428
F0.16666666666666666
sS'they spoke to'
p429
F1.0
sS'had me put'
p430
F0.5
sS'the street it'
p431
F1.0
sS'millions of them'
p432
F1.0
sS'that i had'
p433
F0.1
sS"' asked the"
p434
F0.3333333333333333
sS'a strange land'
p435
F0.5
sS"the inquisitor 's"
p436
F0.3333333333333333
sS', and let'
p437
F0.025
sS'walkers draw back.'
p438
F1.0
sS'them how they'
p439
F0.5
sS'that window and'
p440
F1.0
sS'lever on this'
p441
F1.0
sS'ran to and'
p442
F1.0
sS'happened through all'
p443
F1.0
sS'* * it'
p444
F0.3333333333333333
sS'the street. "'
p445
F1.0
sS'is it permitted'
p446
F0.5
sS'at the car'
p447
F0.07692307692307693
sS'in strength and'
p448
F1.0
sS'the thing ,'
p449
F1.0
sS'then i saw'
p450
F0.5
sS"thicourt , '"
p451
F0.5
sS'to relate once'
p452
F1.0
sS'i said that'
p453
F1.0
sS'now in the'
p454
F1.0
sS'ship was approaching'
p455
F1.0
sS'wheels connected to'
p456
F1.0
sS'occurred to me'
p457
F1.0
sS'and he asked'
p458
F1.0
sS'wanted to tell'
p459
F1.0
sS', unchanging ?'
p460
F1.0
sS'cried out on'
p461
F0.5
sS'at this spot'
p462
F1.0
sS'of living pictures'
p463
F1.0
sS'were talking. but'
p464
F1.0
sS'" they showed'
p465
F0.125
sS'matters forbidden. "'
p466
F1.0
sS'and a hat'
p467
F0.2
sS'with me down'
p468
F1.0
sS'to men ;'
p469
F0.5
sS'buildings above the'
p470
F1.0
sS', that covered'
p471
F0.1111111111111111
sS'brought henri across'
p472
F1.0
sS'seemingly tossing and'
p473
F1.0
sS'grew smaller ,'
p474
F1.0
sS'they put on'
p475
F1.0
sS'my eyes and'
p476
F0.16666666666666666
sS'and thicourt led'
p477
F0.16666666666666666
sS'raised walk at'
p478
F1.0
sS'throwing aside the'
p479
F1.0
sS'in the year'
p480
F0.04
sS'bumping upon a'
p481
F1.0
sS'approaching a city'
p482
F1.0
sS'stopped and we'
p483
F1.0
sS'five centuries ?'
p484
F0.3333333333333333
sS'burned henri lothiere.'
p485
F1.0
sS'future time of'
p486
F1.0
sS"the first. 'we"
p487
F1.0
sS'excitement held me'
p488
F1.0
sS"saw thicourt 's"
p489
F1.0
sS'they bent over'
p490
F0.5
sS'talking to each'
p491
F1.0
sS'instrument from the'
p492
F1.0
sS'believe me but'
p493
F1.0
sS'hand and smiled.'
p494
F1.0
sS'and rastin and'
p495
F0.25
sS'nearer us in'
p496
F1.0
sS'henri lothiere was'
p497
F0.25
sS'finally the white-bearded'
p498
F1.0
sS'must strive for.'
p499
F1.0
sS'" therefore ,'
p500
F1.0
sS'always been. "'
p501
F1.0
sS'it , i'
p502
F0.14285714285714285
sS'myself. i thought'
p503
F1.0
sS'into the street.'
p504
F0.16666666666666666
sS'is the year'
p505
F1.0
sS'the mists before'
p506
F1.0
sS'to steady. "'
p507
F1.0
sS'back into the'
p508
F1.0
sS'winged cars. rastin'
p509
F1.0
sS'in a tongue'
p510
F0.14285714285714285
sS'cloth. " they'
p511
F1.0
sS'the battered visages'
p512
F1.0
sS'me , i'
p513
F0.1111111111111111
sS'rastin shook his'
p514
F1.0
sS'what they saw'
p515
F0.3333333333333333
sS'life and death'
p516
F1.0
sS'him here from'
p517
F1.0
sS'were heard by'
p518
F1.0
sS'know and who'
p519
F0.5
sS'of knowledge of'
p520
F0.2
sS'reappear as only'
p521
F1.0
sS'the room as'
p522
F0.3333333333333333
sS'accusation and examens'
p523
F1.0
sS'gazing , had'
p524
F1.0
sS'" \'and rastin'
p525
F1.0
sS'by diabolical power'
p526
F1.0
sS'? " there'
p527
F0.5
sS'people in rows'
p528
F1.0
sS'eyes at the'
p529
F1.0
sS'tell you ,'
p530
F1.0
sS'hardly dared to'
p531
F1.0
sS'men who want'
p532
F0.5
sS"'neither the one"
p533
F1.0
sS'me curious. they'
p534
F1.0
sS'told the truth'
p535
F1.0
sS'never heard --'
p536
F0.5
sS'words that i'
p537
F1.0
sS'early morning to'
p538
F1.0
sS'hid all before'
p539
F1.0
sS'the spot from'
p540
F0.25
sS'were talking to'
p541
F0.5
sS'from the table'
p542
F0.06666666666666667
sS'me , "'
p543
F0.1111111111111111
sS'the room. they'
p544
F0.5
sS'that hundreds of'
p545
F1.0
sS'faster than any'
p546
F1.0
sS'they said that'
p547
F0.25
sS'did state that'
p548
F1.0
sS'rastin touched the'
p549
F1.0
sS'and bare of'
p550
F1.0
sS'i had planned.'
p551
F0.05263157894736842
sS', so might'
p552
F0.5
sS'wider streets ,'
p553
F1.0
sS'who spend our'
p554
F1.0
sS', first in'
p555
F1.0
sS'then the car'
p556
F0.3333333333333333
sS'field at the'
p557
F0.5
sS'well describe what'
p558
F1.0
sS'but it was'
p559
F1.0
sS'looked out through'
p560
F1.0
sS'into its mysteries'
p561
F1.0
sS'sea and smaller'
p562
F0.5
sS'need to know'
p563
F1.0
sS", 'impossible !"
p564
F1.0
sS'and in them'
p565
F0.25
sS', flashing brilliant'
p566
F1.0
sS'feared ! "'
p567
F1.0
sS'is stated by'
p568
F1.0
sS'lightning in the'
p569
F1.0
sS'of the parchments'
p570
F0.03125
sS'what happened in'
p571
F0.5
sS'and yet somehow'
p572
F0.5
sS'them. i dug'
p573
F0.25
sS'here and there.'
p574
F1.0
sS'and at the'
p575
F0.5
sS'a sorcerer with'
p576
F0.16666666666666666
sS'place of living'
p577
F1.0
sS'or tunic or'
p578
F1.0
sS'of knowledge were'
p579
F0.2
sS'land across the'
p580
F1.0
sS"'what time --"
p581
F1.0
sS'one was shouting'
p582
F0.5
sS'and send him'
p583
F1.0
sS'" \'but if'
p584
F0.3333333333333333
sS'we swept upward'
p585
F1.0
sS'could not see'
p586
F0.14285714285714285
sS'ground , i'
p587
F0.5
sS'work ever toward'
p588
F1.0
sS'" \'but it'
p589
F0.3333333333333333
sS'a cathedral at'
p590
F1.0
sS'future that it'
p591
F1.0
sS'we entered again'
p592
F0.5
sS'had always dreamed'
p593
F0.3333333333333333
sS'" many thousands'
p594
F1.0
sS'to that field'
p595
F1.0
sS'others did not'
p596
F1.0
sS'healers , working'
p597
F1.0
sS'looked down ,'
p598
F1.0
sS'knowledge of what'
p599
F1.0
sS'examens on that'
p600
F1.0
sS'was approaching a'
p601
F1.0
sS'and i brought'
p602
F0.1
sS'the king of'
p603
F0.3333333333333333
sS'gentle blood ,'
p604
F1.0
sS'one ridding himself'
p605
F1.0
sS'surely possible only'
p606
F1.0
sS'just before you'
p607
F1.0
sS'with the penalty'
p608
F0.2
sS'been able to'
p609
F1.0
sS'bolts and grating'
p610
F1.0
sS'eyes to the'
p611
F0.5
sS'own eyes !'
p612
F1.0
sS'reeled at the'
p613
F1.0
sS', whoever you'
p614
F1.0
sS'fire. if anything'
p615
F1.0
sS'had involuntarily closed'
p616
F1.0
sS'mighty cities ,'
p617
F1.0
sS"'s assistant. it"
p618
F1.0
sS'the saunterers in'
p619
F1.0
sS'got a long'
p620
F1.0
sS'and forth the'
p621
F1.0
sS'upward at terrible'
p622
F1.0
sS'yield to these'
p623
F1.0
sS'ground into the'
p624
F1.0
sS'brought him here'
p625
F0.5
sS'came from the'
p626
F0.25
sS'we rolled back'
p627
F1.0
sS'and visions _of'
p628
F1.0
sS'size incredible ,'
p629
F1.0
sS'it was lit'
p630
F0.045454545454545456
sS'of the many'
p631
F0.03125
sS'thicourt. they seemed'
p632
F1.0
sS'black smoke going'
p633
F1.0
sS'houses , the'
p634
F1.0
sS'length or breadth'
p635
F1.0
sS'up for hours'
p636
F1.0
sS'may now do'
p637
F1.0
sS"the field 's"
p638
F0.125
sS'again through the'
p639
F1.0
sS'to make the'
p640
F1.0
sS'to men there'
p641
F0.5
sS'air above it'
p642
F0.5
sS'them of these'
p643
F0.3333333333333333
sS'one might do'
p644
F1.0
sS'its vast mass'
p645
F1.0
sS'side on a'
p646
F1.0
sS'lived , i'
p647
F1.0
sS'or moans that'
p648
F1.0
sS'praying that he'
p649
F1.0
sS'white-bearded and the'
p650
F1.0
sS"' shouted the"
p651
F1.0
sS'on this object'
p652
F1.0
sS'the box ,'
p653
F1.0
sS'man could ever'
p654
F1.0
sS'have told the'
p655
F0.5
sS'to him. he'
p656
F1.0
sS'that be proof'
p657
F1.0
sS'of them ,'
p658
F0.125
sS'i watched the'
p659
F0.5
sS'god , they'
p660
F0.3333333333333333
sS'can show them'
p661
F1.0
sS'tell other blasphemies'
p662
F1.0
sS'charged in this'
p663
F1.0
sS'light in the'
p664
F1.0
sS'were men like'
p665
F0.5
sS'rastin and thicourt.'
p666
F0.3333333333333333
sS'with it. they'
p667
F1.0
sS'able to live'
p668
F0.5
sS'streets -- all'
p669
F1.0
sS'the file of'
p670
F1.0
sS'that had happened'
p671
F0.3333333333333333
sS'can i describe'
p672
F1.0
sS'one. it showed'
p673
F1.0
sS', and found'
p674
F0.025
sS', for wine'
p675
F0.3333333333333333
sS'glass thing vanished.'
p676
F1.0
sS'lay far beneath'
p677
F1.0
sS', and heard'
p678
F0.025
sS'that rotation and'
p679
F1.0
sS'learned with them.'
p680
F1.0
sS'i was engaged'
p681
F0.09090909090909091
sS'our sun was'
p682
F0.5
sS'are not now'
p683
F1.0
sS'that wheel !'
p684
F1.0
sS'little. i heard'
p685
F1.0
sS'to be on'
p686
F0.16666666666666666
sS'as to be'
p687
F1.0
sS'" we swept'
p688
F0.3333333333333333
sS'long light coat'
p689
F1.0
sS'night before midnight'
p690
F1.0
sS', after we'
p691
F1.0
sS'the two beside'
p692
F0.25
sS'vast things that'
p693
F1.0
sS'there were many'
p694
F0.14285714285714285
sS'and as i'
p695
F0.5
sS'all cried. "'
p696
F1.0
sS'many of my'
p697
F0.3333333333333333
sS'again , its'
p698
F0.3333333333333333
sS'mystery of the'
p699
F1.0
sS'some way ,'
p700
F0.5
sS'they showed me'
p701
F0.5
sS'was himself the'
p702
F1.0
sS'you are not'
p703
F0.5
sS'henri lothiere spoke'
p704
F0.25
sS'a thick curl'
p705
F1.0
sS'scene , land'
p706
F1.0
sS'ran like water'
p707
F1.0
sS'it would. rastin'
p708
F1.0
sS'had been rotated'
p709
F0.14285714285714285
sS', seeing how'
p710
F0.5
sS"'you will want"
p711
F1.0
sS'any truth in'
p712
F1.0
sS'i shook my'
p713
F1.0
sS', and as'
p714
F0.025
sS'morning of that'
p715
F0.5
sS'through giant tubes'
p716
F1.0
sS'my tunic and'
p717
F1.0
sS'behind a wheel'
p718
F1.0
sS'put on ,'
p719
F0.5
sS'blazed with living'
p720
F1.0
sS'could not believe'
p721
F0.14285714285714285
sS'go -- must'
p722
F1.0
sS'years into the'
p723
F1.0
sS'shape coming nearer'
p724
F1.0
sS'vessel of the'
p725
F1.0
sS'by rotating the'
p726
F1.0
sS'box with an'
p727
F1.0
sS'someone living from'
p728
F1.0
sS'in them we'
p729
F0.3333333333333333
sS'me seemed the'
p730
F1.0
sS'saw around me.'
p731
F1.0
sS'is attested by'
p732
F0.5
sS'and sea and'
p733
F1.0
sS'me made me'
p734
F1.0
sS'rush , and'
p735
F1.0
sS'for , in'
p736
F1.0
sS'set them off'
p737
F1.0
sS'and to turn'
p738
F0.2
sS'strangely at me'
p739
F1.0
sS'-- people --'
p740
F1.0
sS'the reverse !'
p741
F1.0
sS'many great things'
p742
F1.0
sS'clear opening rather'
p743
F1.0
sS'me from one'
p744
F0.5
sS'to see their'
p745
F0.3333333333333333
sS'were rushing back'
p746
F1.0
sS'them like water.'
p747
F1.0
sS'them. i looked'
p748
F0.25
sS'of them across'
p749
F0.125
sS'were coming as'
p750
F1.0
sS'first to another'
p751
F0.5
sS'metal things that'
p752
F1.0
sS'floor was of'
p753
F1.0
sS'one took an'
p754
F1.0
sS'and to their'
p755
F0.2
sS'an instant from'
p756
F0.5
sS'days. vast things'
p757
F1.0
sS'of opening bolts'
p758
F1.0
sS'that day. it'
p759
F0.5
sS'they were saying.'
p760
F0.09090909090909091
sS'seemed dressed much'
p761
F1.0
sS'talked excitedly so'
p762
F1.0
sS'" higher and'
p763
F1.0
sS'of the winged'
p764
F0.03125
sS'there ? another'
p765
F1.0
sS'and seized me'
p766
F1.0
sS'his voice gaining'
p767
F0.5
sS'then , throwing'
p768
F0.5
sS'silence in the'
p769
F1.0
sS'force were used.'
p770
F1.0
sS'curved around and'
p771
F1.0
sS', they said'
p772
F0.25
sS'own time to'
p773
F0.25
sS'them of my'
p774
F0.3333333333333333
sS'they laughed ,'
p775
F1.0
sS', i watched'
p776
F0.08333333333333333
sS'who can say'
p777
F1.0
sS'that many of'
p778
F0.5
sS', yet they'
p779
F0.14285714285714285
sS'front was a'
p780
F1.0
sS'at me and'
p781
F1.0
sS'explained some of'
p782
F1.0
sS'new and terrible'
p783
F1.0
sS'by these hundreds'
p784
F0.3333333333333333
sS'strange land across'
p785
F1.0
sS'bending again with'
p786
F1.0
sS'me put on'
p787
F1.0
sS'henri , it'
p788
F0.3333333333333333
sS'would that be'
p789
F1.0
sS'and explained some'
p790
F1.0
sS'and burned and'
p791
F1.0
sS'delve into matters'
p792
F1.0
sS'he spoke into'
p793
F0.5
sS'hidden from us.'
p794
F1.0
sS'at the wonders'
p795
F0.07692307692307693
sS'air. then i'
p796
F1.0
sS'that earth was'
p797
F0.5
sS'when there came'
p798
F1.0
sS'before midnight ,'
p799
F1.0
sS'me to touch'
p800
F0.25
sS'to find that'
p801
F1.0
sS'turned to find'
p802
F0.5
sS'saw ! glad'
p803
F1.0
sS'above the streets.'
p804
F0.3333333333333333
sS', and the'
p805
F0.025
sS'him. he touched'
p806
F0.3333333333333333
sS'how sick and'
p807
F1.0
sS'the one time'
p808
F0.3333333333333333
sS'lower part and'
p809
F1.0
sS'believe now ,'
p810
F1.0
sS'lifting his gaze'
p811
F1.0
sS'screamed and some'
p812
F1.0
sS", ' the"
p813
F0.16666666666666666
sS'giant tubes at'
p814
F1.0
sS'entirely from view'
p815
F1.0
sS'across the field'
p816
F0.5
sS'peasants. all seemed'
p817
F1.0
sS'the whitebeard ,'
p818
F1.0
sS'with living voices'
p819
F0.5
sS'on , that'
p820
F0.5
sS'it is different'
p821
F0.2
sS'as i saw'
p822
F0.2
sS'this that henri'
p823
F1.0
sS'like this sailed'
p824
F1.0
sS", ' he"
p825
F0.16666666666666666
sS'a tale ,'
p826
F1.0
sS'just as length'
p827
F0.3333333333333333
sS'they saw and'
p828
F0.3333333333333333
sS'roaring there before'
p829
F1.0
sS', i cannot'
p830
F0.08333333333333333
sS'french i knew'
p831
F1.0
sS'stirred. " they'
p832
F1.0
sS'buildings. they spoke'
p833
F1.0
sS'through glass. the'
p834
F1.0
sS'we glimpsed people'
p835
F1.0
sS'before final sentence'
p836
F1.0
sS"'you would not"
p837
F1.0
sS'they were talking.'
p838
F0.09090909090909091
sS'the big white-walled'
p839
F1.0
sS'the seal of'
p840
F1.0
sS'read calmly on'
p841
F1.0
sS', grinning. "'
p842
F1.0
sS'low but steady.'
p843
F1.0
sS"the car 's"
p844
F0.25
sS'below them !'
p845
F1.0
sS'raised walks were'
p846
F1.0
sS'floor and the'
p847
F1.0
sS'first time ,'
p848
F1.0
sS'he went gravely'
p849
F1.0
sS'of leagues from'
p850
F0.3333333333333333
sS'i knew ,'
p851
F0.25
sS'to descend. it'
p852
F1.0
sS'field in question.'
p853
F1.0
sS'address them. "'
p854
F1.0
sS'sword or even'
p855
F1.0
sS'seized me and'
p856
F1.0
sS'was already far'
p857
F1.0
sS'my brain reeled'
p858
F0.5
sS'moving forward with'
p859
F1.0
sS'them. i waited'
p860
F0.25
sS'pressed more buttons'
p861
F1.0
sS'wheel ! "'
p862
F1.0
sS'understand these things.'
p863
F1.0
sS'so much as'
p864
F1.0
sS'and one brought'
p865
F1.0
sS'moved round the'
p866
F1.0
sS'fancies and visions'
p867
F1.0
sS'man might dig'
p868
F1.0
sS'building , where'
p869
F1.0
sS'buildings grew smaller'
p870
F1.0
sS'listen. before i'
p871
F1.0
sS'that they showed.'
p872
F0.14285714285714285
sS'you still believe'
p873
F1.0
sS'the pictures showed'
p874
F0.3333333333333333
sS'to me how'
p875
F0.16666666666666666
sS'the car was'
p876
F0.25
sS'at undreamed-of speed'
p877
F1.0
sS'heard by many'
p878
F1.0
sS'he half-whispered ,'
p879
F1.0
sS'inquisitor , to'
p880
F1.0
sS'faked. \' "'
p881
F1.0
sS'and the way'
p882
F0.07142857142857142
sS'what they had'
p883
F0.3333333333333333
sS'the latter looked'
p884
F0.5
sS'the western ocean'
p885
F1.0
sS'that i was'
p886
F0.1
sS'went to the'
p887
F1.0
sS', vanished from'
p888
F1.0
sS'believe you ?'
p889
F1.0
sS'other , henri'
p890
F0.3333333333333333
sS'not see it.'
p891
F1.0
sS'thought they came'
p892
F1.0
sS'[ illustration :'
p893
F1.0
sS'kindly enough ,'
p894
F1.0
sS'it was faked.'
p895
F0.045454545454545456
sS'one of these'
p896
F0.3333333333333333
sS'sun , and'
p897
F1.0
sS'how he had'
p898
F1.0
sS'i have seen'
p899
F0.25
sS'went with me'
p900
F1.0
sS'sea and sky'
p901
F0.5
sS'the bottle shone'
p902
F1.0
sS'! the streets'
p903
F0.3333333333333333
sS'me for a'
p904
F1.0
sS'my own fate'
p905
F0.5
sS'and something in'
p906
F1.0
sS'roaring came and'
p907
F1.0
sS'stone , smooth'
p908
F1.0
sS', hardly ,'
p909
F1.0
sS'with lettering. rastin'
p910
F1.0
sS'however , you'
p911
F1.0
sS'were starting or'
p912
F1.0
sS'" small lads'
p913
F1.0
sS'an incredible city'
p914
F1.0
sS'broke out. "'
p915
F1.0
sS'said. i did'
p916
F1.0
sS'time-dimensions at this'
p917
F1.0
sS'thicourt did something'
p918
F1.0
sS'then in growing'
p919
F1.0
sS'folded and covered'
p920
F1.0
sS'vanish and to'
p921
F1.0
sS'disappeared through the'
p922
F1.0
sS'that from which'
p923
F0.5
sS'faster along the'
p924
F1.0
sS'the circle of'
p925
F1.0
sS'that scooped in'
p926
F1.0
sS'dressed much the'
p927
F1.0
sS', i thought'
p928
F0.08333333333333333
sS'of things that'
p929
F0.5
sS'quickly for a'
p930
F1.0
sS'saw the things'
p931
F0.5
sS'me call goodbye'
p932
F1.0
sS'mighty city of'
p933
F0.3333333333333333
sS'an instrument from'
p934
F1.0
sS'! its broad'
p935
F1.0
sS'by horse or'
p936
F1.0
sS'seamless as though'
p937
F1.0
sS'many levers. "'
p938
F1.0
sS'winds and seemed'
p939
F1.0
sS'as though by'
p940
F0.125
sS', of what'
p941
F0.3333333333333333
sS'rows of seats.'
p942
F1.0
sS'continued. * *'
p943
F1.0
sS'of candles. i'
p944
F1.0
sS'through them ,'
p945
F0.5
sS'to return to'
p946
F1.0
sS'it was always'
p947
F0.045454545454545456
sS'believe it ,'
p948
F1.0
sS'i felt dazed.'
p949
F0.25
sS'white and gleaming.'
p950
F1.0
sS'speed. sometimes those'
p951
F1.0
sS'to last ?'
p952
F1.0
sS'speed that increased'
p953
F1.0
sS'had me stand'
p954
F0.5
sS"' i asked."
p955
F0.25
sS'they had shown'
p956
F0.14285714285714285
sS'glass things on'
p957
F1.0
sS'for that day'
p958
F1.0
sS'inset in it'
p959
F1.0
sS'before me seemed'
p960
F0.5
sS', what a'
p961
F0.5
sS'the glass thing'
p962
F0.5
sS'indeed a mighty'
p963
F1.0
sS'in his eyes'
p964
F0.5
sS'were gone and'
p965
F1.0
sS'" \'nonsense !'
p966
F1.0
sS'in. thicourt and'
p967
F1.0
sS'-- must tell'
p968
F1.0
sS'it seemed they'
p969
F0.3333333333333333
sS'another thunderclap and'
p970
F0.5
sS'hundreds to appear'
p971
F1.0
sS'changed their position'
p972
F1.0
sS'the great buildings.'
p973
F0.25
sS'people there what'
p974
F1.0
sS'in stupefaction ,'
p975
F1.0
sS'come as though'
p976
F1.0
sS'of our lord'
p977
F0.5
sS'it is stated'
p978
F0.2
sS'said that the'
p979
F0.1
sS'buildings stretching away'
p980
F1.0
sS'was wicked ,'
p981
F1.0
sS'had glass tubes'
p982
F1.0
sS'the window. there'
p983
F0.5
sS"paris. ' *"
p984
F1.0
sS'it had occurred'
p985
F0.25
sS'window. i looked'
p986
F1.0
sS'though from all'
p987
F1.0
sS'myself. " it'
p988
F1.0
sS'the building and'
p989
F1.0
sS', great in'
p990
F1.0
sS'in which i'
p991
F0.5
sS"shouting excitedly. 'we"
p992
F1.0
sS'him ! "'
p993
F0.5
sS'answered were leagues'
p994
F1.0
sS', throwing aside'
p995
F1.0
sS'used many terms'
p996
F1.0
sS'for thousands of'
p997
F1.0
sS'the streets to'
p998
F0.3333333333333333
sS'yet seeming not'
p999
F1.0
sS'comfortable chair. i'
p1000
F1.0
sS'these had written'
p1001
F1.0
sS'assistant of paris'
p1002
F1.0
sS'around me ,'
p1003
F1.0
sS'before him levers'
p1004
F0.3333333333333333
sS'their ground-vehicle. we'
p1005
F1.0
sS'his dark hair'
p1006
F1.0
sS'it was different.'
p1007
F0.045454545454545456
sS'what can you'
p1008
F1.0
sS'therefore , henri'
p1009
F1.0
sS'answered him. he'
p1010
F1.0
sS'gazing out ,'
p1011
F1.0
sS'to address them.'
p1012
F1.0
sS'us , in'
p1013
F0.5
sS'year -- what'
p1014
F1.0
sS'me as i'
p1015
F0.3333333333333333
sS'at intervals ,'
p1016
F1.0
sS'out only a'
p1017
F1.0
sS'and diabolical conjurations'
p1018
F1.0
sS'me as a'
p1019
F0.3333333333333333
sS'men use force'
p1020
F1.0
sS'must tell them'
p1021
F1.0
sS'they never halted'
p1022
F1.0
sS'" both shook'
p1023
F1.0
sS'and the sounds'
p1024
F0.07142857142857142
sS'they all said'
p1025
F0.5
sS'something quickly with'
p1026
F1.0
sS'men ; the'
p1027
F1.0
sS'then out of'
p1028
F1.0
sS'" \'there is'
p1029
F1.0
sS'stopped before a'
p1030
F1.0
sS'we went again'
p1031
F0.5
sS'of things i'
p1032
F0.5
sS', between great'
p1033
F1.0
sS'from view in'
p1034
F1.0
sS'seemed explaining how'
p1035
F1.0
sS'my name. i'
p1036
F1.0
sS'in size ,'
p1037
F1.0
sS'they did not'
p1038
F1.0
sS'on my head.'
p1039
F1.0
sS'of people moved'
p1040
F0.5
sS'had lords ,'
p1041
F1.0
sS'they issued ,'
p1042
F1.0
sS'unholy spot with'
p1043
F1.0
sS'bent over me.'
p1044
F1.0
sS'from all the'
p1045
F1.0
sS'mass of buildings'
p1046
F1.0
sS'different men ,'
p1047
F1.0
sS'the many levers.'
p1048
F1.0
sS'will never believe'
p1049
F1.0
sS'through those streets'
p1050
F1.0
sS'in the thunderclap.'
p1051
F0.04
sS'were other winged'
p1052
F1.0
sS'him to the'
p1053
F1.0
sS'studied that place.'
p1054
F1.0
sS'ridding himself of'
p1055
F1.0
sS'can you do'
p1056
F1.0
sS'handles and buttons.'
p1057
F1.0
sS'then they brought'
p1058
F1.0
sS'great symbols upon'
p1059
F1.0
sS'those who remained.'
p1060
F0.3333333333333333
sS', " he'
p1061
F0.25
sS'\' " he'
p1062
F0.08333333333333333
sS'them. i went'
p1063
F0.25
sS'of the future'
p1064
F0.03125
sS'me out of'
p1065
F1.0
sS'things and rastin'
p1066
F1.0
sS'they were telling'
p1067
F0.09090909090909091
sS'them , and'
p1068
F0.2
sS'the great city.'
p1069
F0.25
sS'of seats. i'
p1070
F1.0
sS'they went on'
p1071
F0.5
sS'and ways were'
p1072
F1.0
sS'double-oar or paddle.'
p1073
F1.0
sS'a sorcerer would'
p1074
F0.16666666666666666
sS'course , but'
p1075
F1.0
sS'two disappeared through'
p1076
F1.0
sS'with time ?'
p1077
F1.0
sS"! ' cried"
p1078
F0.3333333333333333
sS'for i was'
p1079
F1.0
sS'it was the'
p1080
F0.045454545454545456
sS'was watched and'
p1081
F1.0
sS'i saw thicourt'
p1082
F0.08333333333333333
sS'i brought him'
p1083
F0.5
sS'was an incredible'
p1084
F1.0
sS'and there. they'
p1085
F1.0
sS'like looking through'
p1086
F1.0
sS'time as though'
p1087
F1.0
sS'he said. the'
p1088
F0.2
sS'by the time'
p1089
F0.5
sS'science found that'
p1090
F1.0
sS'cures in a'
p1091
F1.0
sS'at the stars'
p1092
F0.07692307692307693
sS'saw how dazed'
p1093
F1.0
sS'and to reappear'
p1094
F0.2
sS'broad streets were'
p1095
F1.0
sS'paris in which'
p1096
F1.0
sS'sorcerer but a'
p1097
F1.0
sS'shifted along the'
p1098
F1.0
sS', and of'
p1099
F0.025
sS'a great shape'
p1100
F0.14285714285714285
sS'a smooth ,'
p1101
F1.0
sS'dreamed of surely'
p1102
F1.0
sS'two beside me'
p1103
F1.0
sS'time to another'
p1104
F0.2
sS'said. " \'well'
p1105
F0.2
sS"' i pleaded"
p1106
F0.25
sS'him clearly ,'
p1107
F1.0
sS'in the prisoner'
p1108
F0.04
sS'his face ,'
p1109
F0.5
sS'in the walls'
p1110
F0.04
sS'then that i'
p1111
F1.0
sS'us. i knew'
p1112
F1.0
sS'he would summon'
p1113
F1.0
sS'know that this'
p1114
F0.5
sS'eyes and something'
p1115
F0.5
sS'he turned one'
p1116
F1.0
sS'had made me'
p1117
F1.0
sS'these things ,'
p1118
F0.5
sS', and gave'
p1119
F0.025
sS'" \'thicourt and'
p1120
F1.0
sS'two raised walks'
p1121
F1.0
sS'known diabolical nature'
p1122
F1.0
sS'excited at the'
p1123
F1.0
sS'and i studied'
p1124
F0.1
sS"walk 's edge"
p1125
F1.0
sS'was such a'
p1126
F1.0
sS'many times ,'
p1127
F0.3333333333333333
sS'land. each man'
p1128
F1.0
sS'i thought it'
p1129
F0.3333333333333333
sS'from the glass'
p1130
F0.06666666666666667
sS'before the rushing'
p1131
F0.5
sS"centuries , '"
p1132
F1.0
sS'as i stood'
p1133
F0.2
sS'their trials. i'
p1134
F1.0
sS'and were talking'
p1135
F0.3333333333333333
sS'from it speaking'
p1136
F0.25
sS'and henri lothiere'
p1137
F1.0
sS'were big buildings'
p1138
F1.0
sS'forward to the'
p1139
F1.0
sS'times folded and'
p1140
F1.0
sS'i met rastin'
p1141
F1.0
sS'only a sorcerer'
p1142
F0.5
sS', for that'
p1143
F0.3333333333333333
sS'might some day'
p1144
F1.0
sS'coming and going'
p1145
F1.0
sS'either side. they'
p1146
F1.0
sS'the prisoner for'
p1147
F0.3333333333333333
sS'things , and'
p1148
F1.0
sS'at both ends'
p1149
F1.0
sS'and going inside'
p1150
F1.0
sS'the sentence you'
p1151
F1.0
sS'many times i'
p1152
F0.3333333333333333
sS'had never heard'
p1153
F0.25
sS'they seemed quite'
p1154
F0.5
sS'new words as'
p1155
F1.0
sS'out as i'
p1156
F1.0
sS'the truth in'
p1157
F1.0
sS'manner of flight'
p1158
F1.0
sS'before you found'
p1159
F1.0
sS'the earth as'
p1160
F0.3333333333333333
sS'western ocean that'
p1161
F0.5
sS'seemed afraid. "'
p1162
F1.0
sS'men of science'
p1163
F0.5
sS'saw them rising'
p1164
F1.0
sS'vanished hours before'
p1165
F1.0
sS', at least'
p1166
F0.5
sS', very slowly'
p1167
F1.0
sS'that lay about'
p1168
F1.0
sS'and along wider'
p1169
F1.0
sS'held me ,'
p1170
F1.0
sS'time into theirs.'
p1171
F1.0
sS'by many witnesses'
p1172
F0.25
sS'of the reverse'
p1173
F0.03125
sS'came suddenly another'
p1174
F1.0
sS'him back before'
p1175
F1.0
sS'it is also'
p1176
F0.2
sS'any i had'
p1177
F1.0
sS'living from a'
p1178
F1.0
sS'as he brooded'
p1179
F0.25
sS'know , that'
p1180
F1.0
sS'june , it'
p1181
F1.0
sS'and rastin entered'
p1182
F0.25
sS'that their cause'
p1183
F0.3333333333333333
sS'a chorus of'
p1184
F1.0
sS'a room ,'
p1185
F0.5
sS'range on range'
p1186
F1.0
sS'sitter and lorentz.'
p1187
F1.0
sS'molten metal from'
p1188
F1.0
sS'the time we'
p1189
F1.0
sS'forward with it.'
p1190
F1.0
sS'de sitter and'
p1191
F0.5
sS'and hat i'
p1192
F1.0
sS'they will have'
p1193
F1.0
sS', and henri'
p1194
F0.025
sS'can advance in'
p1195
F1.0
sS'certain instruments ,'
p1196
F1.0
sS'soft leather seat.'
p1197
F1.0
sS'between great buildings'
p1198
F1.0
sS', upholding a'
p1199
F1.0
sS'never seen. some'
p1200
F1.0
sS'in all things.'
p1201
F1.0
sS'" i still'
p1202
F0.1111111111111111
sS'we need to'
p1203
F1.0
sS"'we 've brought"
p1204
F1.0
sS'i had spoken'
p1205
F0.05263157894736842
sS'spoken minutes to'
p1206
F1.0
sS'toward me ,'
p1207
F1.0
sS"spot , '"
p1208
F1.0
sS', the planets'
p1209
F0.1111111111111111
sS'with rastin and'
p1210
F1.0
sS'part of them'
p1211
F0.3333333333333333
sS'i took heart'
p1212
F1.0
sS'black cords of'
p1213
F1.0
sS', " is'
p1214
F0.25
sS'many people gathered'
p1215
F0.3333333333333333
sS'faked this fellow'
p1216
F1.0
sS'never dreamed. "'
p1217
F1.0
sS'understand. i told'
p1218
F0.5
sS'metal circle from'
p1219
F0.5
sS'now , though'
p1220
F0.25
sS'i saw the'
p1221
F0.08333333333333333
sS'glass. the floor'
p1222
F1.0
sS'but saw soon'
p1223
F1.0
sS'thicourt stopped and'
p1224
F1.0
sS'that if they'
p1225
F1.0
sS'me back to'
p1226
F1.0
sS', yet neither'
p1227
F0.14285714285714285
sS'they mentioned names'
p1228
F1.0
sS', if the'
p1229
F0.5
sS'of years into'
p1230
F1.0
sS"? ' he"
p1231
F0.14285714285714285
sS'their own eyes'
p1232
F1.0
sS'i did so'
p1233
F0.25
sS'do. " i'
p1234
F0.5
sS'devil and his'
p1235
F1.0
sS'from one time'
p1236
F0.25
sS'all before us.'
p1237
F1.0
sS'between the sky-toppling'
p1238
F0.5
sS'down the parchment'
p1239
F1.0
sS'theirs. " they'
p1240
F1.0
sS"me. 'stand on"
p1241
F1.0
sS'it. they told'
p1242
F0.5
sS'began to hum'
p1243
F0.14285714285714285
sS'with his work.'
p1244
F0.5
sS'about me !'
p1245
F1.0
sS'in the vehicle'
p1246
F0.04
sS'voice to answer.'
p1247
F1.0
sS'the ground-vehicle. it'
p1248
F1.0
sS'tale of his'
p1249
F1.0
sS'me ! its'
p1250
F0.5
sS'then saw on'
p1251
F1.0
sS'air above the'
p1252
F0.5
sS'other. then to'
p1253
F1.0
sS'a long light'
p1254
F1.0
sS'things i had'
p1255
F1.0
sS'it was all'
p1256
F0.045454545454545456
sS', showed other'
p1257
F0.5
sS'brought me from'
p1258
F0.5
sS'a new and'
p1259
F1.0
sS'future , a'
p1260
F0.5
sS'do so before'
p1261
F1.0
sS"other replied. 'they"
p1262
F1.0
sS'of wonder. "'
p1263
F1.0
sS'the thunderclap come'
p1264
F1.0
sS'one to another'
p1265
F0.5
sS'people at unthinkable'
p1266
F1.0
sS'picture we seemed'
p1267
F1.0
sS'and when rastin'
p1268
F1.0
sS'to hear of'
p1269
F1.0
sS'spot in the'
p1270
F1.0
sS'will want to'
p1271
F1.0
sS'the earth lay'
p1272
F0.3333333333333333
sS'brought me here'
p1273
F0.5
sS'and of king'
p1274
F0.3333333333333333
sS'in my own'
p1275
F1.0
sS"centuries ? '"
p1276
F1.0
sS'did not stop.'
p1277
F0.16666666666666666
sS'and grating of'
p1278
F1.0
sS'yet they said'
p1279
F0.3333333333333333
sS'lights that shone'
p1280
F1.0
sS'instant from the'
p1281
F1.0
sS'heart , for'
p1282
F1.0
sS'part of which'
p1283
F0.3333333333333333
sS'smaller , after'
p1284
F1.0
sS'we entered it'
p1285
F0.5
sS'heard before. i'
p1286
F1.0
sS'others were gazing'
p1287
F1.0
sS', as i'
p1288
F0.3333333333333333
sS'a belt ran'
p1289
F1.0
sS'we got out'
p1290
F1.0
sS'from the opening'
p1291
F0.06666666666666667
sS'that moment. this'
p1292
F0.5
sS'very thin white'
p1293
F1.0
sS'was a straight'
p1294
F0.2
sS'one was white-bearded'
p1295
F0.5
sS'to turn that'
p1296
F1.0
sS'" \'still i'
p1297
F1.0
sS'about me. then'
p1298
F0.5
sS'of june ,'
p1299
F0.5
sS'troubled by works'
p1300
F1.0
sS'wonder , "'
p1301
F1.0
sS'their building ,'
p1302
F0.5
sS'wild tale of'
p1303
F1.0
sS'have been heard'
p1304
F1.0
sS'that i have'
p1305
F0.1
sS'they brought a'
p1306
F1.0
sS'it was so'
p1307
F0.045454545454545456
sS'my own time'
p1308
F0.5
sS'" its walls'
p1309
F1.0
sS'steady. " i'
p1310
F0.5
sS'dark hair was'
p1311
F1.0
sS'they were closed'
p1312
F0.09090909090909091
sS'put on my'
p1313
F0.5
sS'i felt my'
p1314
F0.25
sS'seats with the'
p1315
F1.0
sS'voices , and'
p1316
F1.0
sS'that this was'
p1317
F0.5
sS'and that had'
p1318
F0.1111111111111111
sS'best they could.'
p1319
F1.0
sS'other different ones'
p1320
F1.0
sS'describe what i'
p1321
F0.5
sS'increased steadily. the'
p1322
F1.0
sS'above it from'
p1323
F1.0
sS'was long and'
p1324
F1.0
sS'said henri lothiere'
p1325
F1.0
sS'followed and were'
p1326
F1.0
sS'went again through'
p1327
F1.0
sS'rastin ; we'
p1328
F1.0
sS'! i tell'
p1329
F0.2
sS'concerned myself with'
p1330
F1.0
sS'or carriages ,'
p1331
F1.0
sS'had found time'
p1332
F0.5
sS'or cabinet there'
p1333
F1.0
sS'out. \' "'
p1334
F1.0
sS'and de sitter'
p1335
F1.0
sS'it permitted me'
p1336
F1.0
sS'than any in'
p1337
F0.5
sS'fixed on the'
p1338
F1.0
sS'opening of the'
p1339
F1.0
sS'hope for ,'
p1340
F1.0
sS', tapering to'
p1341
F1.0
sS'by awful winds'
p1342
F1.0
sS'levers. " a'
p1343
F1.0
sS'the wonders that'
p1344
F1.0
sS'on with his'
p1345
F1.0
sS'the waters ,'
p1346
F0.5
sS'henri lothiere ,'
p1347
F0.25
sS'their feat ,'
p1348
F1.0
sS'minions , and'
p1349
F1.0
sS'above the spot'
p1350
F0.3333333333333333
sS'attested beyond all'
p1351
F1.0
sS'hands were fettered.'
p1352
F1.0
sS'gazed astoundedly along'
p1353
F1.0
sS'room as he'
p1354
F0.5
sS'the uncrossed western'
p1355
F1.0
sS'going up from'
p1356
F1.0
sS'" he said.'
p1357
F0.125
sS'file of mail-clad'
p1358
F1.0
sS'and they entered'
p1359
F0.16666666666666666
sS'speed ! i'
p1360
F1.0
sS'the other ,'
p1361
F0.14285714285714285
sS'encouraged me. then'
p1362
F1.0
sS'of them rushed'
p1363
F0.125
sS'that it would.'
p1364
F0.25
sS', undrawn by'
p1365
F1.0
sS'went. the earth'
p1366
F1.0
sS'smooth , clear'
p1367
F1.0
sS'the long stone-walled'
p1368
F1.0
sS'was engaged in'
p1369
F1.0
sS'and twice i'
p1370
F1.0
sS'" but they'
p1371
F0.3333333333333333
sS'ever met !'
p1372
F1.0
sS', moved round'
p1373
F0.5
sS'they said ,'
p1374
F0.25
sS'a great flat'
p1375
F0.14285714285714285
sS'these and a'
p1376
F1.0
sS'horizons below us.'
p1377
F1.0
sS'had never dreamed.'
p1378
F0.25
sS'his work of'
p1379
F1.0
sS'there. they lifted'
p1380
F1.0
sS'were passing through'
p1381
F1.0
sS'be , you'
p1382
F0.5
sS'the future that'
p1383
F0.25
sS'was many rods'
p1384
F1.0
sS'" with rastin'
p1385
F1.0
sS'in that moment.'
p1386
F0.16666666666666666
sS'dancing even !'
p1387
F1.0
sS'is also attested'
p1388
F1.0
sS'air ! there'
p1389
F0.5
sS'babble of excited'
p1390
F1.0
sS'what i had'
p1391
F0.25
sS'ship seemed passing'
p1392
F1.0
sS'that it had'
p1393
F0.25
sS'heard and the'
p1394
F1.0
sS'to another ?'
p1395
F0.3333333333333333
sS', and set'
p1396
F0.025
sS'at all. there'
p1397
F1.0
sS'nothing. and still'
p1398
F1.0
sS'sailing in the'
p1399
F1.0
sS'to another ,'
p1400
F0.3333333333333333
sS'i saw there'
p1401
F0.08333333333333333
sS'world , even'
p1402
F1.0
sS'he shook himself'
p1403
F1.0
sS'circle of smooth'
p1404
F0.3333333333333333
sS'the sky-toppling buildings'
p1405
F1.0
sS'of that day.'
p1406
F0.5
sS'from us ,'
p1407
F1.0
sS'city on all'
p1408
F1.0
sS'you will pass'
p1409
F1.0
sS'the door ,'
p1410
F1.0
sS'here , henri'
p1411
F1.0
sS'straight-hanging garments of'
p1412
F1.0
sS'of hundreds of'
p1413
F1.0
sS'of the mechanisms'
p1414
F0.03125
sS'miraculous cures in'
p1415
F1.0
sS'in it ,'
p1416
F0.3333333333333333
sS'by morey ]'
p1417
F1.0
sS'then shuddered. the'
p1418
F1.0
sS'with the other'
p1419
F0.2
sS'a few superstitious'
p1420
F1.0
sS'will pass upon'
p1421
F1.0
sS'countless ground-vehicles rushed'
p1422
F1.0
sS'never men had'
p1423
F1.0
sS'in me made'
p1424
F1.0
sS'the church teaches'
p1425
F1.0
sS'to me and'
p1426
F0.16666666666666666
sS'across five centuries'
p1427
F0.5
sS'the two disappeared'
p1428
F0.25
sS'the window. i'
p1429
F0.5
sS'seen to go'
p1430
F0.5
sS'! " my'
p1431
F0.1
sS'there were great'
p1432
F0.14285714285714285
sS'buttons on it'
p1433
F1.0
sS'and upward as'
p1434
F1.0
sS'clear that one'
p1435
F1.0
sS'of these were'
p1436
F0.16666666666666666
sS', bumping on'
p1437
F1.0
sS'like a swooping'
p1438
F0.3333333333333333
sS'looked around me'
p1439
F1.0
sS"my hand. 'you"
p1440
F1.0
sS'their speech in'
p1441
F1.0
sS'i was in'
p1442
F0.09090909090909091
sS'ran around the'
p1443
F1.0
sS"heads. 'no ,"
p1444
F1.0
sS'not. they said'
p1445
F1.0
sS'to see whether'
p1446
F0.3333333333333333
sS'behind them ,'
p1447
F1.0
sS'sat behind a'
p1448
F1.0
sS'was a great'
p1449
F0.2
sS'could not halt'
p1450
F0.14285714285714285
sS'endless streets. countless'
p1451
F1.0
sS'was done in'
p1452
F1.0
sS'eyes ! the'
p1453
F0.5
sS'time to the'
p1454
F0.2
sS'these were men'
p1455
F0.3333333333333333
sS'made the walkers'
p1456
F1.0
sS', singing. i'
p1457
F1.0
sS'and also strange'
p1458
F1.0
sS'this fact is'
p1459
F1.0
sS'him tell other'
p1460
F0.5
sS'phrases , and'
p1461
F1.0
sS'times i concerned'
p1462
F1.0
sS'incredible , without'
p1463
F1.0
sS'i had hardly'
p1464
F0.05263157894736842
sS'-- ? "'
p1465
F1.0
sS'the plump one'
p1466
F1.0
sS'it that i'
p1467
F0.5
sS'" it was'
p1468
F0.3333333333333333
sS'beyond all doubt.'
p1469
F1.0
sS'during that day.'
p1470
F1.0
sS'of mail-clad soldiers'
p1471
F1.0
sS'horse or ox'
p1472
F1.0
sS'would take a'
p1473
F1.0
sS'little handles and'
p1474
F1.0
sS'the birds ,'
p1475
F1.0
sS'us , and'
p1476
F0.5
sS'ship. a great'
p1477
F1.0
sS'had always hoped'
p1478
F0.3333333333333333
sS'far beneath and'
p1479
F0.3333333333333333
sS'that paris was'
p1480
F1.0
sS'lads ran to'
p1481
F1.0
sS'some day do.'
p1482
F0.5
sS'his voice low'
p1483
F0.5
sS'way that i'
p1484
F1.0
sS'car began to'
p1485
F1.0
sS'western ocean ,'
p1486
F0.5
sS'was seen to'
p1487
F0.5
sS'diabolical nature of'
p1488
F1.0
sS'earth and sea'
p1489
F1.0
sS'which they issued'
p1490
F1.0
sS'different. they touched'
p1491
F1.0
sS'many men. they'
p1492
F1.0
sS'time , the'
p1493
F0.25
sS'vehicles i had'
p1494
F1.0
sS'one at least'
p1495
F1.0
sS'thunderclaps , he'
p1496
F1.0
sS'stupefaction , and'
p1497
F1.0
sS'day i had'
p1498
F1.0
sS'understand , incomprehensible'
p1499
F0.5
sS'circle of metal.'
p1500
F0.3333333333333333
sS'speculations. " but'
p1501
F1.0
sS'point in time'
p1502
F1.0
sS'thicourt beside me.'
p1503
F1.0
sS'air around me'
p1504
F1.0
sS'me my name.'
p1505
F1.0
sS'though none so'
p1506
F1.0
sS'the year 0000.'
p1507
F0.5
sS', " yet'
p1508
F0.25
sS'from it answering'
p1509
F0.25
sS'oars , holding'
p1510
F1.0
sS'rotation and send'
p1511
F1.0
sS'scores of candles.'
p1512
F1.0
sS'thousands of these'
p1513
F0.3333333333333333
sS'found that out.'
p1514
F1.0
sS'fearful , and'
p1515
F0.5
sS', i must'
p1516
F0.08333333333333333
sS'your eyes --'
p1517
F1.0
sS'called nanley by'
p1518
F1.0
sS'thicourt and i'
p1519
F0.5
sS'there were no'
p1520
F0.14285714285714285
sS'sentence is passed'
p1521
F1.0
sS'my neighbors whispered'
p1522
F1.0
sS'all things that'
p1523
F1.0
sS'do it again'
p1524
F1.0
sS'* * "'
p1525
F0.3333333333333333
sS', from earliest'
p1526
F1.0
sS'like a small'
p1527
F0.3333333333333333
sS'neighbors. i was'
p1528
F1.0
sS'* * *'
p1529
F0.3333333333333333
sS'goodbye to him.'
p1530
F1.0
sS'they used to'
p1531
F1.0
sS'know the nature'
p1532
F1.0
sS'was sailing over'
p1533
F1.0
sS'a distant time'
p1534
F1.0
sS'small glass bottle'
p1535
F1.0
sS'a tongue i'
p1536
F1.0
sS'france , raised'
p1537
F1.0
sS'morning of the'
p1538
F0.5
sS', i did'
p1539
F0.08333333333333333
sS'gone and it'
p1540
F1.0
sS'are what we'
p1541
F1.0
sS'they disputed with'
p1542
F1.0
sS'of those things'
p1543
F0.5
sS'intervals , the'
p1544
F1.0
sS'negatives answered him.'
p1545
F1.0
sS'to study them.'
p1546
F1.0
sS'i concerned myself'
p1547
F1.0
sS'as they bent'
p1548
F0.5
sS'in that familiar'
p1549
F0.16666666666666666
sS'strange and with'
p1550
F0.5
sS"woman 's voice"
p1551
F1.0
sS'understand. " at'
p1552
F1.0
sS"'he doesn 't"
p1553
F1.0
sS'hose. instead they'
p1554
F1.0
sS', dressed like'
p1555
F1.0
sS'the right force'
p1556
F1.0
sS'field at all'
p1557
F0.5
sS'do -- ?'
p1558
F1.0
sS'though with living'
p1559
F1.0
sS'it pictures of'
p1560
F1.0
sS'rushing vehicles ,'
p1561
F1.0
sS'saw that none'
p1562
F0.3333333333333333
sS'vehicles , and'
p1563
F1.0
sS'ship cleared and'
p1564
F1.0
sS'me ! "'
p1565
F0.5
sS'outside the city'
p1566
F1.0
sS'wore loose and'
p1567
F1.0
sS'the air !'
p1568
F0.16666666666666666
sS"' i told"
p1569
F0.25
sS'loads that hundreds'
p1570
F1.0
sS'nothing there that'
p1571
F1.0
sS'the city blazed'
p1572
F0.25
sS'building and into'
p1573
F1.0
sS'passed from the'
p1574
F1.0
sS'me hear voices'
p1575
F1.0
sS'that their machines'
p1576
F0.3333333333333333
sS', working miraculous'
p1577
F1.0
sS'my head. "'
p1578
F0.5
sS'man was speaking'
p1579
F0.3333333333333333
sS'in a way'
p1580
F0.14285714285714285
sS'some way very'
p1581
F0.5
sS'drift , though'
p1582
F1.0
sS'able to do.'
p1583
F0.5
sS'people -- millions'
p1584
F0.5
sS'unthinkable speed. sometimes'
p1585
F1.0
sS'to write even'
p1586
F1.0
sS'and as strangely'
p1587
F0.5
sS'as though with'
p1588
F0.125
sS'! they said'
p1589
F0.5
sS', all dressed'
p1590
F1.0
sS'be learned. "'
p1591
F1.0
sS'and of the'
p1592
F0.3333333333333333
sS', you must'
p1593
F0.25
sS'rastin tried to'
p1594
F1.0
sS'the wheel and'
p1595
F0.5
sS'that ship as'
p1596
F1.0
sS'crossed. i feared'
p1597
F1.0
sS'more buttons and'
p1598
F1.0
sS'was one who'
p1599
F1.0
sS'both ends ,'
p1600
F1.0
sS'to different men'
p1601
F1.0
sS'given my eyes'
p1602
F1.0
sS'same time like'
p1603
F0.5
sS'that reached out'
p1604
F1.0
sS'many hundreds watched'
p1605
F0.5
sS'another box or'
p1606
F1.0
sS'anon great claps'
p1607
F1.0
sS'said that many'
p1608
F0.1
sS'want to know'
p1609
F0.25
sS', when there'
p1610
F0.5
sS'ground-vehicle. we went'
p1611
F1.0
sS'men in them'
p1612
F1.0
sS'had been able'
p1613
F0.14285714285714285
sS'raised his eyes'
p1614
F0.5
sS', its vast'
p1615
F0.5
sS'i pleaded ,'
p1616
F1.0
sS'field during that'
p1617
F1.0
sS'moans that made'
p1618
F1.0
sS'metal. i met'
p1619
F1.0
sS'saying that he'
p1620
F1.0
sS'turned one of'
p1621
F1.0
sS'burned and his'
p1622
F0.5
sS'not fear them'
p1623
F1.0
sS"proof ? '"
p1624
F1.0
sS'strong was my'
p1625
F1.0
sS', if but'
p1626
F0.5
sS'on which were'
p1627
F0.5
sS'men of knowledge'
p1628
F0.5
sS', was flying'
p1629
F0.3333333333333333
sS'the city and'
p1630
F0.25
sS'was on the'
p1631
F0.5
sS', many times'
p1632
F0.5
sS'be stone at'
p1633
F1.0
sS'began to go'
p1634
F0.14285714285714285
sS'reverse ! how'
p1635
F1.0
sS'candles. i shrank'
p1636
F1.0
sS'go through those'
p1637
F1.0
sS'of the box'
p1638
F0.03125
sS'reached toward another'
p1639
F1.0
sS', showed that'
p1640
F0.5
sS', and when'
p1641
F0.025
sS'as he turned'
p1642
F0.25
sS'any in the'
p1643
F1.0
sS'myself with matters'
p1644
F1.0
sS'seeing how sick'
p1645
F1.0
sS'man at the'
p1646
F1.0
sS'endless parchment accusation'
p1647
F1.0
sS'we on the'
p1648
F1.0
sS'lord. and rastin'
p1649
F1.0
sS', and seated'
p1650
F0.025
sS'other man. he'
p1651
F1.0
sS"'t believe that"
p1652
F1.0
sS'those pictures were'
p1653
F1.0
sS'what magic !'
p1654
F1.0
sS'possible only to'
p1655
F1.0
sS'of some sort.'
p1656
F1.0
sS'tell them of'
p1657
F0.3333333333333333
sS'great buildings. they'
p1658
F1.0
sS'have succeeded !'
p1659
F1.0
sS', of course'
p1660
F0.3333333333333333
sS'hardly , that'
p1661
F1.0
sS'for once ,'
p1662
F1.0
sS'word from him'
p1663
F1.0
sS'and thicourt took'
p1664
F0.16666666666666666
sS'was too terrible'
p1665
F1.0
sS'other , and'
p1666
F0.3333333333333333
sS'dared to hope'
p1667
F1.0
sS'but steady. "'
p1668
F1.0
sS'strange vehicles i'
p1669
F0.5
sS'" i am'
p1670
F0.1111111111111111
sS"room. 'those are"
p1671
F1.0
sS'astoundedly along that'
p1672
F1.0
sS'take me from'
p1673
F1.0
sS'five centuries by'
p1674
F0.3333333333333333
sS'gaining in strength'
p1675
F1.0
sS'of size incredible'
p1676
F1.0
sS'straight , and'
p1677
F1.0
sS'heard -- einstein'
p1678
F1.0
sS'unknown to men'
p1679
F1.0
sS'he asked me'
p1680
F0.5
sS'or thickness. they'
p1681
F1.0
sS', was as'
p1682
F0.3333333333333333
sS'earth moved around'
p1683
F1.0
sS'and seamless as'
p1684
F1.0
sS'was so ,'
p1685
F1.0
sS'you were seen'
p1686
F1.0
sS', with levers'
p1687
F0.3333333333333333
sS'a strange ,'
p1688
F0.5
sS'than earth ,'
p1689
F1.0
sS'fear-stricken hundreds around'
p1690
F1.0
sS'to the horizons'
p1691
F0.058823529411764705
sS'rastin , you'
p1692
F0.2
sS', looked out'
p1693
F1.0
sS'them rushed through'
p1694
F1.0
sS'talk , of'
p1695
F1.0
sS'upholding a torch'
p1696
F1.0
sS'the field ,'
p1697
F0.125
sS'his glance shifted'
p1698
F1.0
sS', but now'
p1699
F0.07692307692307693
sS'rushed through the'
p1700
F1.0
sS'passed upon you.'
p1701
F1.0
sS'were you just'
p1702
F1.0
sS', called nanley'
p1703
F1.0
sS'in the field'
p1704
F0.04
sS'of gentle blood'
p1705
F1.0
sS'out. " \'there'
p1706
F1.0
sS'same time as'
p1707
F0.5
sS'though into a'
p1708
F1.0
sS'incomprehensible references and'
p1709
F1.0
sS'that all were'
p1710
F0.5
sS', to the'
p1711
F0.125
sS'head. " \'i'
p1712
F0.5
sS'mentioned names with'
p1713
F1.0
sS'upon me ,'
p1714
F1.0
sS'then lifted one'
p1715
F1.0
sS"one , '"
p1716
F0.3333333333333333
sS'chasms between the'
p1717
F1.0
sS"'thicourt and i"
p1718
F1.0
sS'bare of face.'
p1719
F1.0
sS'or paddle. a'
p1720
F1.0
sS'when they touched'
p1721
F0.3333333333333333
sS'and the hum'
p1722
F0.07142857142857142
sS'tush -- enough'
p1723
F1.0
sS'in days. vast'
p1724
F1.0
sS'were talking one'
p1725
F0.5
sS'millions on millions'
p1726
F1.0
sS'was terribly afraid'
p1727
F1.0
sS'so before final'
p1728
F1.0
sS'one , "'
p1729
F0.3333333333333333
sS'of scores of'
p1730
F1.0
sS'maelstrom , just'
p1731
F1.0
sS'what i have'
p1732
F0.25
sS'the sun. i'
p1733
F1.0
sS'machines around the'
p1734
F1.0
sS'" they said'
p1735
F0.125
sS'upon that night'
p1736
F0.5
sS'ceased from about'
p1737
F1.0
sS'belt ran around'
p1738
F1.0
sS'in them were'
p1739
F0.3333333333333333
sS'tunic and hose.'
p1740
F0.5
sS'of sound. and'
p1741
F1.0
sS'alive ! and'
p1742
F1.0
sS'to tell that'
p1743
F0.25
sS'not. but lately'
p1744
F1.0
sS'fro for thousands'
p1745
F1.0
sS'from view. "'
p1746
F1.0
sS"century ? '"
p1747
F1.0
sS'to land from'
p1748
F1.0
sS'round shape that'
p1749
F1.0
sS'me. then they'
p1750
F0.5
sS'and in moments'
p1751
F0.25
sS'too terrible a'
p1752
F1.0
sS'superstitious ones following'
p1753
F1.0
sS'i knew that'
p1754
F0.25
sS"the walk 's"
p1755
F1.0
sS'i , henri'
p1756
F1.0
sS'break around me'
p1757
F1.0
sS'over downward and'
p1758
F1.0
sS'had written in'
p1759
F1.0
sS'are five hundred'
p1760
F1.0
sS'are a man'
p1761
F1.0
sS'known measurements to'
p1762
F1.0
sS'great things the'
p1763
F1.0
sS'to them. they'
p1764
F0.5
sS'the inquisitor ,'
p1765
F0.3333333333333333
sS'there what i'
p1766
F1.0
sS'it was late'
p1767
F0.045454545454545456
sS'ground was already'
p1768
F1.0
sS'asked me many'
p1769
F0.5
sS'blasphemies mentioned ,'
p1770
F1.0
sS'statue , upholding'
p1771
F1.0
sS'was his own'
p1772
F1.0
sS'as loadstones ,'
p1773
F1.0
sS'" he seemed'
p1774
F0.125
sS'seen , with'
p1775
F1.0
sS'metal with a'
p1776
F1.0
sS'of very thin'
p1777
F1.0
sS'i could not'
p1778
F0.25
sS'all. there was'
p1779
F1.0
sS'been rotated out'
p1780
F1.0
sS'told me it'
p1781
F0.25
sS'i began to'
p1782
F1.0
sS'at the things'
p1783
F0.07692307692307693
sS'its mighty buildings'
p1784
F1.0
sS'ever have turned'
p1785
F1.0
sS'ears numbed by'
p1786
F1.0
sS'winglike projections on'
p1787
F1.0
sS'but lately have'
p1788
F1.0
sS'through the window'
p1789
F0.16666666666666666
sS'of the stars'
p1790
F0.03125
sS'had died years'
p1791
F1.0
sS'they rolled out'
p1792
F1.0
sS'in seeking knowledge.'
p1793
F1.0
sS"from ? '"
p1794
F1.0
sS'" all were'
p1795
F0.5
sS'that with other'
p1796
F1.0
sS'myself. they said'
p1797
F1.0
sS'and the machines'
p1798
F0.07142857142857142
sS'hair was long'
p1799
F1.0
sS'contrivances or machines'
p1800
F1.0
sS'rotated out of'
p1801
F1.0
sS'" he read'
p1802
F0.125
sS'in the land.'
p1803
F0.04
sS'i had involuntarily'
p1804
F0.05263157894736842
sS'others that lifted'
p1805
F1.0
sS'moment , and'
p1806
F0.5
sS'we pry into'
p1807
F1.0
sS'speak to them.'
p1808
F1.0
sS'with the levers'
p1809
F0.2
sS', praying that'
p1810
F1.0
sS'earth , that'
p1811
F1.0
sS'hundreds of years'
p1812
F0.25
sS'time of what'
p1813
F0.3333333333333333
sS"said , 'but"
p1814
F0.5
sS'these wild fancies'
p1815
F1.0
sS'seemed falling downward'
p1816
F1.0
sS'whirling. " he'
p1817
F1.0
sS'great buildings and'
p1818
F0.5
sS'inside , and'
p1819
F0.5
sS'pass upon me'
p1820
F1.0
sS', king and'
p1821
F1.0
sS'and was dressed'
p1822
F1.0
sS'a great building'
p1823
F0.14285714285714285
sS'clothes , and'
p1824
F1.0
sS'a sword or'
p1825
F1.0
sS'we seemed to'
p1826
F1.0
sS', seemed contrivances'
p1827
F0.3333333333333333
sS'winged flying-cars and'
p1828
F1.0
sS'instead of the'
p1829
F1.0
sS'then came suddenly'
p1830
F1.0
sS'up and speak'
p1831
F1.0
sS'round him quickly'
p1832
F1.0
sS'window at a'
p1833
F1.0
sS"'he does not"
p1834
F1.0
sS'to their ground-vehicle.'
p1835
F0.5
sS'mighty buildings and'
p1836
F1.0
sS'altogether different from'
p1837
F1.0
sS'he had gone'
p1838
F0.2
sS'a button beneath'
p1839
F1.0
sS'voice. " henri'
p1840
F1.0
sS'square. " strange'
p1841
F1.0
sS'\' " a'
p1842
F0.08333333333333333
sS'of people. i'
p1843
F1.0
sS'himself the sorcerer'
p1844
F1.0
sS"year 0000. '"
p1845
F0.5
sS'came a clang'
p1846
F0.5
sS'me a thing'
p1847
F1.0
sS'walk at either'
p1848
F1.0
sS'write even one'
p1849
F1.0
sS"don 't believe"
p1850
F1.0
sS'power since even'
p1851
F1.0
sS'cloak or tunic'
p1852
F1.0
sS'the spot in'
p1853
F0.25
sS'we reverse that'
p1854
F1.0
sS'they showed. one'
p1855
F1.0
sS'that night. he'
p1856
F1.0
sS'be that you'
p1857
F1.0
sS'his eyes to'
p1858
F0.5
sS'they cried out'
p1859
F1.0
sS'and the king'
p1860
F0.07142857142857142
sS'rastin began to'
p1861
F1.0
sS'i could make'
p1862
F0.25
sS'at the great'
p1863
F0.07692307692307693
sS'into the great'
p1864
F0.16666666666666666
sS'glad that i'
p1865
F1.0
sS'to whirl so'
p1866
F1.0
sS'the parchments from'
p1867
F0.5
sS'the awful falling'
p1868
F1.0
sS'many hundreds of'
p1869
F0.5
sS'sky-toppling buildings !'
p1870
F1.0
sS'but such a'
p1871
F1.0
sS'nor the other'
p1872
F1.0
sS'into strange worlds.'
p1873
F1.0
sS'different from the'
p1874
F0.5
sS'saw about me.'
p1875
F1.0
sS'with its terrible'
p1876
F1.0
sS'to me as'
p1877
F0.16666666666666666
sS'tell them ,'
p1878
F0.3333333333333333
sS'on the metal'
p1879
F0.1111111111111111
sS'but in that'
p1880
F1.0
sS', then seemed'
p1881
F0.5
sS'had again turned'
p1882
F1.0
sS'like that of'
p1883
F0.5
sS'my friend ?'
p1884
F1.0
sS"'s arm move"
p1885
F1.0
sS'over the titanic'
p1886
F0.3333333333333333
sS'happened to me'
p1887
F0.5
sS'into matters unknown'
p1888
F1.0
sS'understand , thicourt'
p1889
F0.5
sS'stone street between'
p1890
F1.0
sS'stood at the'
p1891
F1.0
sS'suns like our'
p1892
F1.0
sS'white-bearded man ,'
p1893
F1.0
sS'of the third'
p1894
F0.03125
sS'my eyes saw'
p1895
F0.16666666666666666
sS'priest and noble'
p1896
F1.0
sS'the light and'
p1897
F0.5
sS'was eager to'
p1898
F1.0
sS'there were windows'
p1899
F0.14285714285714285
sS'to it ,'
p1900
F1.0
sS'* " how'
p1901
F0.25
sS'a moment and'
p1902
F0.3333333333333333
sS'that all of'
p1903
F0.5
sS'always my nature'
p1904
F1.0
sS'it and a'
p1905
F0.25
sS"' asked rastin"
p1906
F0.3333333333333333
sS'were everywhere in'
p1907
F1.0
sS'i went toward'
p1908
F0.3333333333333333
sS'around it instead'
p1909
F0.5
sS'sides. and with'
p1910
F1.0
sS'believe ! i'
p1911
F1.0
sS'wore cloak or'
p1912
F1.0
sS'falling downward through'
p1913
F1.0
sS'the future is'
p1914
F0.25
sS'i too ,'
p1915
F1.0
sS', in a'
p1916
F0.25
sS'you just before'
p1917
F1.0
sS'a sorcerer ,'
p1918
F0.16666666666666666
sS'dreamed might some'
p1919
F1.0
sS'chorus of excited'
p1920
F1.0
sS'-- the paris'
p1921
F1.0
sS'aspired up as'
p1922
F1.0
sS'asked me. "'
p1923
F1.0
sS'with certain instruments.'
p1924
F1.0
sS'voices ! i'
p1925
F1.0
sS'" in the'
p1926
F1.0
sS'strange worlds. i'
p1927
F1.0
sS'the future. "'
p1928
F0.3333333333333333
sS'seemed to me'
p1929
F0.25
sS'car was terrific'
p1930
F1.0
sS'someday , sometime'
p1931
F1.0
sS'many simple things'
p1932
F1.0
sS"-- ' i"
p1933
F0.5
sS'one end of'
p1934
F1.0
sS'few superstitious ones'
p1935
F1.0
sS'to the great'
p1936
F0.058823529411764705
sS'they were talking'
p1937
F0.09090909090909091
sS'burned and ran'
p1938
F0.5
sS'make out only'
p1939
F1.0
sS'blinked and burned'
p1940
F1.0
sS'a small glass'
p1941
F0.5
sS'other plump and'
p1942
F1.0
sS'end of it'
p1943
F1.0
sS'he said. i'
p1944
F0.2
sS'hard surface ,'
p1945
F1.0
sS'\' " \'neither'
p1946
F0.08333333333333333
sS'that the said'
p1947
F0.125
sS'a straight figure'
p1948
F1.0
sS'into the air.'
p1949
F0.16666666666666666
sS'take certain instruments'
p1950
F1.0
sS'much time at'
p1951
F1.0
sS'streets about us.'
p1952
F1.0
sS'to me. he'
p1953
F0.5
sS'he spoke to'
p1954
F0.5
sS'to appear at'
p1955
F1.0
sS'went i saw'
p1956
F1.0
sS"'ll say it"
p1957
F1.0
sS'and over downward'
p1958
F1.0
sS'have seen --'
p1959
F1.0
sS', though none'
p1960
F0.3333333333333333
sS'will have me'
p1961
F1.0
sS'sorcerer would ever'
p1962
F1.0
sS'sat. his glance'
p1963
F1.0
sS'was greatest of'
p1964
F1.0
sS'in your 00th-century'
p1965
F1.0
sS'from one to'
p1966
F0.25
sS'i reached the'
p1967
F1.0
sS'he said. "'
p1968
F0.2
sS'his gaze from'
p1969
F1.0
sS'seemed they were'
p1970
F1.0
sS'had on it'
p1971
F1.0
sS'and encouraged me.'
p1972
F1.0
sS'of the known'
p1973
F0.03125
sS'no sorcerer ,'
p1974
F0.5
sS'" winged flying-cars'
p1975
F1.0
sS'but they said'
p1976
F0.3333333333333333
sS'" \'neither the'
p1977
F1.0
sS'calmly on from'
p1978
F1.0
sS'of paris in'
p1979
F0.5
sS'the manner of'
p1980
F1.0
sS'while at the'
p1981
F1.0
sS'; the secrets'
p1982
F1.0
sS'new york ,'
p1983
F1.0
sS'names with reverence'
p1984
F1.0
sS'rushing back and'
p1985
F1.0
sS'i said. "'
p1986
F1.0
sS'all said that'
p1987
F1.0
sS'to fly thus'
p1988
F1.0
sS'a half-glimpsed panic'
p1989
F1.0
sS'ceiling and walls'
p1990
F1.0
sS'had hardly dared'
p1991
F1.0
sS'a humming sound'
p1992
F1.0
sS'our lives in'
p1993
F1.0
sS'suddenly the mists'
p1994
F1.0
sS'also strange vehicles'
p1995
F1.0
sS'and talked excitedly'
p1996
F1.0
sS'through the endless'
p1997
F0.16666666666666666
sS'it answering him'
p1998
F1.0
sS'might matter be'
p1999
F1.0
sS'rastin , and'
p2000
F0.2
sS'small box with'
p2001
F1.0
sS'said it was'
p2002
F1.0
sS'familiar field from'
p2003
F0.5
sS'buildings and that'
p2004
F0.5
sS"? ' i"
p2005
F0.14285714285714285
sS'on it pictures'
p2006
F0.25
sS'and then saw'
p2007
F0.1
sS"the other. 'messieurs"
p2008
F0.5
sS', but could'
p2009
F0.07692307692307693
sS'saw , showed'
p2010
F1.0
sS"'for the love"
p2011
F1.0
sS'their machines produced'
p2012
F1.0
sS'to the field'
p2013
F0.058823529411764705
sS'-- enough of'
p2014
F1.0
sS'in some way'
p2015
F0.5
sS'that increased steadily.'
p2016
F1.0
sS'leagues from us'
p2017
F1.0
sS'the man was'
p2018
F0.5
sS'was round like'
p2019
F1.0
sS'began to descend.'
p2020
F0.14285714285714285
sS'turned on their'
p2021
F1.0
sS'through the city'
p2022
F0.16666666666666666
sS'to the chair.'
p2023
F0.058823529411764705
sS"lothiere , '"
p2024
F0.2
sS'at one end'
p2025
F1.0
sS'? \' "'
p2026
F0.14285714285714285
sS'to all the'
p2027
F1.0
sS'westward , and'
p2028
F1.0
sS'latter looked round'
p2029
F1.0
sS'they had tried'
p2030
F0.14285714285714285
sS'came a humming'
p2031
F0.5
sS', a thing'
p2032
F0.25
sS'things that poured'
p2033
F0.16666666666666666
sS'was terrific ,'
p2034
F1.0
sS'" \'but how'
p2035
F0.3333333333333333
sS'was full of'
p2036
F1.0
sS'through strange and'
p2037
F1.0
sS'and his work'
p2038
F0.3333333333333333
sS'what would seem'
p2039
F1.0
sS'none now had'
p2040
F1.0
sS', where first'
p2041
F1.0
sS'to the circle'
p2042
F0.058823529411764705
sS'other vehicles rolling'
p2043
F1.0
sS"field 's end"
p2044
F0.5
sS'such as i'
p2045
F0.5
sS'mentioned , i'
p2046
F1.0
sS'the walls ,'
p2047
F1.0
sS'great thunderclaps myself.'
p2048
F1.0
sS'light ! "'
p2049
F1.0
sS'whirling around and'
p2050
F1.0
sS'from one great'
p2051
F0.25
sS'! i staggered'
p2052
F0.2
sS'nothing but the'
p2053
F1.0
sS'me from my'
p2054
F0.5
sS'worth life and'
p2055
F1.0
sS'you out of'
p2056
F1.0
sS', and that'
p2057
F0.025
sS'down to the'
p2058
F1.0
sS'lifted one of'
p2059
F1.0
sS', sire ,'
p2060
F1.0
sS'pictures and to'
p2061
F1.0
sS'beside me. some'
p2062
F1.0
sS'of grotesque round'
p2063
F1.0
sS'white-bearded one ,'
p2064
F1.0
sS"apothecary 's assistant"
p2065
F0.5
sS'i had happened'
p2066
F0.05263157894736842
sS'two of them'
p2067
F0.5
sS'i wondered. yet'
p2068
F1.0
sS'whose hands were'
p2069
F1.0
sS'sorcerer , of'
p2070
F0.5
sS', i have'
p2071
F0.08333333333333333
sS'to utter the'
p2072
F1.0
sS'slowly , i'
p2073
F0.5
sS'and set it'
p2074
F1.0
sS'not , and'
p2075
F0.5
sS'physicists -- men'
p2076
F1.0
sS'by works of'
p2077
F1.0
sS'into the sky'
p2078
F0.16666666666666666
sS'it is not.'
p2079
F0.2
sS'to have it'
p2080
F1.0
sS'tunic or hose.'
p2081
F1.0
sS'and started the'
p2082
F1.0
sS'a double-oar or'
p2083
F1.0
sS'excited talk ,'
p2084
F1.0
sS'came from somewhere'
p2085
F0.25
sS'shook their heads.'
p2086
F1.0
sS'be learned with'
p2087
F1.0
sS'went on to'
p2088
F1.0
sS'the reverse. i'
p2089
F1.0
sS'explain to me'
p2090
F1.0
sS'whether anything might'
p2091
F1.0
sS'from earliest youth'
p2092
F1.0
sS"' * *"
p2093
F1.0
sS'and fro at'
p2094
F0.14285714285714285
sS', just as'
p2095
F1.0
sS'night now ,'
p2096
F1.0
sS'there came a'
p2097
F0.5
sS'clerk many days'
p2098
F1.0
sS'mask of the'
p2099
F1.0
sS'thunder of the'
p2100
F1.0
sS'but so strong'
p2101
F1.0
sS'offense , however'
p2102
F1.0
sS'comprehend , and'
p2103
F1.0
sS'spoke , his'
p2104
F1.0
sS'was like that'
p2105
F0.5
sS'as he had'
p2106
F0.25
sS'one point along'
p2107
F0.5
sS'saw on it'
p2108
F1.0
sS'might do --'
p2109
F0.5
sS'in the room.'
p2110
F0.04
sS'times , they'
p2111
F1.0
sS'hoped to get'
p2112
F1.0
sS'my brain was'
p2113
F0.5
sS'not understand. rastin'
p2114
F0.25
sS'descended by the'
p2115
F1.0
sS'knowledge to see'
p2116
F1.0
sS'him. he had'
p2117
F0.3333333333333333
sS'a different language.'
p2118
F1.0
sS'touched the lever'
p2119
F0.5
sS'beneath ! i'
p2120
F1.0
sS"them. 'i want"
p2121
F1.0
sS'changeless mask of'
p2122
F1.0
sS'i have set'
p2123
F0.25
sS'i had done'
p2124
F0.05263157894736842
sS'a ship ,'
p2125
F1.0
sS'you have faked'
p2126
F1.0
sS'no knights or'
p2127
F1.0
sS'i had been'
p2128
F0.05263157894736842
sS'produced that force'
p2129
F1.0
sS'understand. you are'
p2130
F1.0
sS'state that in'
p2131
F1.0
sS', and rastin'
p2132
F0.025
sS'and hose ,'
p2133
F1.0
sS'across five solid'
p2134
F0.5
sS'round like an'
p2135
F1.0
sS'vast inside and'
p2136
F1.0
sS'loud roaring came'
p2137
F1.0
sS'much as man'
p2138
F0.3333333333333333
sS'their words. "'
p2139
F1.0
sS'many that the'
p2140
F1.0
sS'as a man'
p2141
F0.5
sS'from the battered'
p2142
F0.06666666666666667
sS'said that these'
p2143
F0.1
sS'me , seeing'
p2144
F0.1111111111111111
sS'yet do i'
p2145
F1.0
sS', seemed moving'
p2146
F0.3333333333333333
sS'there was no'
p2147
F0.16666666666666666
sS'them and in'
p2148
F1.0
sS'sorcerer , sire.'
p2149
F0.5
sS'that poured molten'
p2150
F1.0
sS'to fear. i'
p2151
F1.0
sS'smooth metal inset'
p2152
F1.0
sS'servants of the'
p2153
F1.0
sS'its door. a'
p2154
F1.0
sS'i looked around'
p2155
F0.2
sS'i had found'
p2156
F0.05263157894736842
sS'we stopped before'
p2157
F1.0
sS'thousands of people.'
p2158
F0.3333333333333333
sS'he be burned'
p2159
F1.0
sS'sun. i heard'
p2160
F1.0
sS'went , a'
p2161
F0.5
sS'jerk you from'
p2162
F1.0
sS'its terrible burst'
p2163
F1.0
sS"'s front was"
p2164
F1.0
sS'another , so'
p2165
F0.3333333333333333
sS"sirs ? '"
p2166
F1.0
sS'gaze from his'
p2167
F1.0
sS'muttered the white-bearded'
p2168
F1.0
sS'wear a sword'
p2169
F1.0
sS'" i could'
p2170
F0.1111111111111111
sS'knew that many'
p2171
F0.5
sS'buttons. " there'
p2172
F1.0
sS'they asked me'
p2173
F1.0
sS'who had followed'
p2174
F0.5
sS'statues by its'
p2175
F1.0
sS"? ' all"
p2176
F0.14285714285714285
sS'what the future'
p2177
F1.0
sS'and great buildings'
p2178
F0.5
sS'but little. i'
p2179
F1.0
sS'garments of cloth.'
p2180
F1.0
sS'he said to'
p2181
F0.5
sS'of the stars.'
p2182
F0.03125
sS'out from the'
p2183
F1.0
sS'said the other'
p2184
F1.0
sS'i was lying.'
p2185
F0.09090909090909091
sS'even but hours'
p2186
F1.0
sS'a rounded black'
p2187
F1.0
sS'the first time'
p2188
F1.0
sS'brought someone through'
p2189
F1.0
sS'hum , and'
p2190
F1.0
sS'city and there'
p2191
F1.0
sS'warning snarls or'
p2192
F1.0
sS'anything might be'
p2193
F1.0
sS'streets and still'
p2194
F0.3333333333333333
sS'of all the'
p2195
F1.0
sS'saw and told'
p2196
F1.0
sS'that was causing'
p2197
F1.0
sS'as it had'
p2198
F1.0
sS'before. i was'
p2199
F0.3333333333333333
sS'and they said'
p2200
F0.16666666666666666
sS', since you'
p2201
F0.5
sS'had heard before'
p2202
F0.5
sS'things that scooped'
p2203
F0.16666666666666666
sS'afraid , there'
p2204
F1.0
sS'and they were'
p2205
F0.16666666666666666
sS'city , and'
p2206
F0.3333333333333333
sS', but it'
p2207
F0.07692307692307693
sS'rastin and i'
p2208
F0.3333333333333333
sS"apothecary 's assistant."
p2209
F0.5
sS'the air. mother'
p2210
F0.3333333333333333
sS'stone at all.'
p2211
F1.0
sS'sky , but'
p2212
F0.5
sS'from his endless'
p2213
F0.5
sS'their cause might'
p2214
F1.0
sS'that street. it'
p2215
F1.0
sS'around the wheel'
p2216
F0.25
sS'that heaven frowns'
p2217
F1.0
sS"to answer. 'surely"
p2218
F1.0
sS"'t understand ,"
p2219
F1.0
sS'a blasphemer ,'
p2220
F1.0
sS', the saunterers'
p2221
F0.1111111111111111
sS'to vanish and'
p2222
F1.0
sS'never halted their'
p2223
F1.0
sS'all the marvels'
p2224
F0.2
sS'i caught a'
p2225
F1.0
sS'could understand the'
p2226
F0.5
sS'that familiar field'
p2227
F1.0
sS"'s eyes and"
p2228
F1.0
sS'shuddered. the ground'
p2229
F1.0
sS'below us. a'
p2230
F1.0
sS'to look on'
p2231
F1.0
sS'made me call'
p2232
F0.5
sS'we sat in'
p2233
F1.0
sS'me many questions'
p2234
F1.0
sS'familiar field at'
p2235
F0.5
sS'i had always'
p2236
F0.05263157894736842
sS'the pictures changed'
p2237
F0.3333333333333333
sS'and around smaller'
p2238
F1.0
sS'that had made'
p2239
F0.3333333333333333
sS'building. then the'
p2240
F1.0
sS'room than the'
p2241
F1.0
sS'lothiere , since'
p2242
F0.2
sS'seeing me staring'
p2243
F1.0
sS'raised his head'
p2244
F0.5
sS'black disk on'
p2245
F1.0
sS'swift rush ,'
p2246
F1.0
sS"other. 'messieurs ,"
p2247
F1.0
sS'mind was full'
p2248
F1.0
sS'cleared and there'
p2249
F1.0
sS'led me back'
p2250
F0.3333333333333333
sS'and a voice'
p2251
F0.2
sS'which i lived'
p2252
F0.25
sS'issuing from an'
p2253
F1.0
sS'again , the'
p2254
F0.3333333333333333
sS'the prisoner ,'
p2255
F0.3333333333333333
sS'seemed contrivances or'
p2256
F1.0
sS'fascination that drew'
p2257
F1.0
sS'as one ridding'
p2258
F1.0
sS'i did so.'
p2259
F0.25
sS'were great cabins'
p2260
F0.5
sS'with the coming'
p2261
F0.2
sS'you from ?'
p2262
F0.5
sS'or dimension ,'
p2263
F1.0
sS'this time of'
p2264
F1.0
sS'? the future'
p2265
F1.0
sS'to the big'
p2266
F0.058823529411764705
sS'before. could the'
p2267
F1.0
sS'ceased. they said'
p2268
F1.0
sS'a great statue'
p2269
F0.14285714285714285
sS'a sound of'
p2270
F1.0
sS", 'where were"
p2271
F1.0
sS'believe -- and'
p2272
F1.0
sS'the drift ,'
p2273
F1.0
sS'when they had'
p2274
F0.3333333333333333
sS'speech in a'
p2275
F1.0
sS'his. he used'
p2276
F1.0
sS'go , nor'
p2277
F1.0
sS'the stars ,'
p2278
F0.5
sS'head from the'
p2279
F1.0
sS'water. others that'
p2280
F1.0
sS'was not fearful'
p2281
F0.25
sS'i heard it'
p2282
F0.25
sS"fellow ! '"
p2283
F1.0
sS'this sailed to'
p2284
F1.0
sS'us. then suddenly'
p2285
F1.0
sS'men as they'
p2286
F1.0
sS'saw. is it'
p2287
F1.0
sS'the prisoner. the'
p2288
F1.0
sS'showed what they'
p2289
F1.0
sS'curl of black'
p2290
F1.0
sS'thicourt and rastin'
p2291
F0.5
sS'the nature of'
p2292
F1.0
sS'room where first'
p2293
F1.0
sS'things that i'
p2294
F0.16666666666666666
sS'did believe !'
p2295
F1.0
sS'on the ground'
p2296
F0.1111111111111111
sS'grotesque round shape'
p2297
F1.0
sS'long that part'
p2298
F1.0
sS'that this is'
p2299
F0.5
sS', and it'
p2300
F0.025
sS'too wonderful ,'
p2301
F1.0
sS'began to whirl'
p2302
F0.14285714285714285
sS'it , the'
p2303
F0.14285714285714285
sS'by committing the'
p2304
F1.0
sS'and forty-four with'
p2305
F0.5
sS'king by committing'
p2306
F1.0
sS'and open field'
p2307
F1.0
sS'centuries by rotating'
p2308
F1.0
sS'saw five centuries'
p2309
F1.0
sS'all stared strangely'
p2310
F1.0
sS'on from the'
p2311
F1.0
sS'the distant square.'
p2312
F1.0
sS'sound subsided. i'
p2313
F1.0
sS', and encouraged'
p2314
F0.025
sS'when they told'
p2315
F0.3333333333333333
sS'earth was round'
p2316
F1.0
sS', in spite'
p2317
F0.25
sS'field very fast'
p2318
F1.0
sS'in his opinion'
p2319
F0.5
sS'that of day'
p2320
F0.5
sS'that none now'
p2321
F0.5
sS'with flat winglike'
p2322
F1.0
sS'a week later'
p2323
F1.0
sS'narrow streets pierced'
p2324
F1.0
sS'see whether anything'
p2325
F1.0
sS'his minions ,'
p2326
F1.0
sS"00th-century paris. '"
p2327
F1.0
sS'was paris in'
p2328
F1.0
sS'but for once'
p2329
F1.0
sS'these crazy fancies.'
p2330
F1.0
sS'they had me'
p2331
F0.14285714285714285
sS'tale , yet'
p2332
F1.0
sS'i was tense.'
p2333
F0.09090909090909091
sS'that night before'
p2334
F1.0
sS'prisoner. the latter'
p2335
F1.0
sS'no sorcerer but'
p2336
F0.5
sS'them rising from'
p2337
F1.0
sS'but i could'
p2338
F1.0
sS', too ,'
p2339
F1.0
sS'and though i'
p2340
F1.0
sS', his voice'
p2341
F1.0
sS'that one. it'
p2342
F1.0
sS'open field outside'
p2343
F0.5
sS'these were gone'
p2344
F0.3333333333333333
sS'the same. "'
p2345
F1.0
sS'into which rastin'
p2346
F1.0
sS'yet , in'
p2347
F1.0
sS'flashing brilliant lights'
p2348
F1.0
sS'and other different'
p2349
F1.0
sS'and ran like'
p2350
F1.0
sS', we curved'
p2351
F1.0
sS'half-glimpsed panic for'
p2352
F1.0
sS'to the inquisitor'
p2353
F0.058823529411764705
sS'room , lying'
p2354
F1.0
sS"'well , henri"
p2355
F0.5
sS', had on'
p2356
F1.0
sS', moved in'
p2357
F0.5
sS"inquisitor 's head"
p2358
F1.0
sS'changing of the'
p2359
F1.0
sS'days , but'
p2360
F1.0
sS'off again into'
p2361
F1.0
sS'quickly ceased from'
p2362
F1.0
sS'despite that i'
p2363
F1.0
sS'heard again the'
p2364
F1.0
sS', he had'
p2365
F0.3333333333333333
sS'of diabolical origin'
p2366
F1.0
sS', yet seeming'
p2367
F0.14285714285714285
sS'there on the'
p2368
F1.0
sS'toward that future'
p2369
F1.0
sS'they must strive'
p2370
F0.5
sS'things on ceiling'
p2371
F1.0
sS'not. the wall'
p2372
F1.0
sS'did so. "'
p2373
F1.0
sS'box , and'
p2374
F0.5
sS'a torch ,'
p2375
F1.0
sS'beside him. he'
p2376
F1.0
sS"'how ? '"
p2377
F1.0
sS'are able to'
p2378
F1.0
sS'me how the'
p2379
F1.0
sS'from which i'
p2380
F0.5
sS"' i said."
p2381
F0.25
sS'asked of those'
p2382
F1.0
sS'the thunderclaps ,'
p2383
F0.25
sS'city blazed with'
p2384
F1.0
sS'ground-vehicles rushed to'
p2385
F1.0
sS'from him and'
p2386
F0.5
sS'from the ship.'
p2387
F0.06666666666666667
sS'and carried many'
p2388
F1.0
sS'city of the'
p2389
F0.25
sS'air ! "'
p2390
F0.5
sS'seen -- what'
p2391
F1.0
sS', you may'
p2392
F0.25
sS'permitted me to'
p2393
F1.0
sS'my nature ,'
p2394
F1.0
sS'seemed to break'
p2395
F0.25
sS'with wires inside'
p2396
F1.0
sS'" \'henri lothiere'
p2397
F1.0
sS'neighbors whispered that'
p2398
F1.0
sS'they told me'
p2399
F1.0
sS"' he answered."
p2400
F0.16666666666666666
sS'thunderclap , but'
p2401
F1.0
sS'that i heard'
p2402
F0.1
sS', and carried'
p2403
F0.025
sS'symbols upon the'
p2404
F1.0
sS'object of metal'
p2405
F1.0
sS'lightning , and'
p2406
F1.0
sS'that double-blade began'
p2407
F1.0
sS'big buildings at'
p2408
F1.0
sS'nothing had been'
p2409
F1.0
sS'i shuddered when'
p2410
F1.0
sS'and hose. his'
p2411
F1.0
sS'observed going through'
p2412
F1.0
sS'found yourself here'
p2413
F1.0
sS'plump one was'
p2414
F1.0
sS'a clerk many'
p2415
F1.0
sS'there any truth'
p2416
F1.0
sS'steady. " sire'
p2417
F0.5
sS'as though into'
p2418
F0.125
sS'to explain to'
p2419
F1.0
sS'i must adjudge'
p2420
F0.5
sS'in rows on'
p2421
F1.0
sS'of thunder seemed'
p2422
F0.5
sS'nature of the'
p2423
F1.0
sS'city , the'
p2424
F0.3333333333333333
sS'another scene ,'
p2425
F1.0
sS', clear voice.'
p2426
F1.0
sS'on either side.'
p2427
F0.5
sS'they screamed and'
p2428
F1.0
sS', and in'
p2429
F0.025
sS'been heard issuing'
p2430
F0.5
sS'" sire ,'
p2431
F1.0
sS'so when these'
p2432
F1.0
sS'that afternoon ,'
p2433
F1.0
sS'to hope for'
p2434
F1.0
sS'clang of opening'
p2435
F0.5
sS'lothiere , apothecary'
p2436
F0.2
sS'what happened to'
p2437
F0.5
sS'his head. "'
p2438
F1.0
sS'thunderclaps were not'
p2439
F1.0
sS'the mighty city'
p2440
F1.0
sS'i went to'
p2441
F0.3333333333333333
sS'turned very fast'
p2442
F1.0
sS"white-bearded one. 'what"
p2443
F1.0
sS'was my desire'
p2444
F0.5
sS'gleaming. there were'
p2445
F1.0
sS'of the shining'
p2446
F0.03125
sS'and bending again'
p2447
F1.0
sS'me. i caught'
p2448
F0.5
sS'the devil. ever'
p2449
F1.0
sS'sort. black cords'
p2450
F1.0
sS'they lifted me'
p2451
F1.0
sS'and blue light'
p2452
F1.0
sS'experiment that night.'
p2453
F1.0
sS'pictures enthralled. it'
p2454
F1.0
sS', sire. and'
p2455
F0.5
sS'a lever on'
p2456
F1.0
sS'the crime of'
p2457
F1.0
sS'? have ye'
p2458
F1.0
sS'were leagues separated'
p2459
F1.0
sS'bottle with wires'
p2460
F1.0
sS'to be a'
p2461
F0.16666666666666666
sS'speaking in a'
p2462
F1.0
sS'weakly. my brain'
p2463
F1.0
sS'me of things'
p2464
F1.0
sS'am glad. glad'
p2465
F1.0
sS'a clear opening'
p2466
F1.0
sS'which he sat.'
p2467
F1.0
sS'them all things'
p2468
F1.0
sS'clap of thunder'
p2469
F1.0
sS'" they bent'
p2470
F0.125
sS'on the front'
p2471
F0.1111111111111111
sS'who had died'
p2472
F0.5
sS'but could scarce'
p2473
F1.0
sS'yet they never'
p2474
F0.3333333333333333
sS'the wheel turned'
p2475
F0.5
sS'rods in length'
p2476
F1.0
sS'closed with sheets'
p2477
F1.0
sS'a sight before'
p2478
F1.0
sS'then through the'
p2479
F1.0
sS'returning soldiers ,'
p2480
F1.0
sS'another room than'
p2481
F1.0
sS'shining little handles'
p2482
F1.0
sS'the field in'
p2483
F0.125
sS'future , or'
p2484
F0.5
sS'and brought me'
p2485
F0.5
sS'then the buildings'
p2486
F0.3333333333333333
sS'these things in'
p2487
F0.5
sS'always dreamed that'
p2488
F1.0
sS'journeys of hundreds'
p2489
F1.0
sS'to go to'
p2490
F0.25
sS'many levels rose'
p2491
F1.0
sS'" i gazed'
p2492
F0.1111111111111111
sS'from any i'
p2493
F1.0
sS"asked. 'is not"
p2494
F1.0
sS'strength and fervor'
p2495
F1.0
sS'field and that'
p2496
F1.0
sS'he read ,'
p2497
F1.0
sS'vehicle. there were'
p2498
F1.0
sS'flight of the'
p2499
F1.0
sS'rastin , saw'
p2500
F0.2
sS'to the unholy'
p2501
F0.058823529411764705
sS'i told them.'
p2502
F0.3333333333333333
sS'him. he waved'
p2503
F0.3333333333333333
sS'said. then ,'
p2504
F1.0
sS'they came from'
p2505
F1.0
sS'in as strange'
p2506
F1.0
sS'it was many'
p2507
F0.045454545454545456
sS'not the french'
p2508
F1.0
sS"clothes -- '"
p2509
F1.0
sS', kindly enough'
p2510
F1.0
sS'a raised walk'
p2511
F1.0
sS'life , and'
p2512
F1.0
sS'now that paris'
p2513
F1.0
sS'by side on'
p2514
F1.0
sS'building into which'
p2515
F1.0
sS'to go through'
p2516
F0.25
sS'can know and'
p2517
F1.0
sS', a vast'
p2518
F0.25
sS'i brought henri'
p2519
F0.5
sS'i closed my'
p2520
F1.0
sS', however ,'
p2521
F1.0
sS'seeming not ,'
p2522
F1.0
sS'i am glad.'
p2523
F0.5
sS'am no sorcerer'
p2524
F1.0
sS'men might some'
p2525
F0.5
sS'and buttons. "'
p2526
F1.0
sS'name. i told'
p2527
F1.0
sS'be a proof'
p2528
F0.5
sS'air. mother of'
p2529
F1.0
sS'it turning in'
p2530
F1.0
sS'saunterers in the'
p2531
F1.0
sS', slowly ,'
p2532
F1.0
sS'we can show'
p2533
F1.0
sS'0000. you are'
p2534
F1.0
sS'the instrument as'
p2535
F1.0
sS'was causing them.'
p2536
F0.5
sS'city of madness'
p2537
F0.25
sS'the news spreading'
p2538
F1.0
sS'at the center'
p2539
F0.07692307692307693
sS'talking. but it'
p2540
F1.0
sS'back and forth'
p2541
F1.0
sS'out through the'
p2542
F1.0
sS'at the levers'
p2543
F0.07692307692307693
sS'showed. one took'
p2544
F1.0
sS'at their words.'
p2545
F1.0
sS'that littered the'
p2546
F1.0
sS'before , repeated'
p2547
F0.5
sS'from them came'
p2548
F0.5
sS'great rock ,'
p2549
F1.0
sS'might be learned'
p2550
F0.3333333333333333
sS'again into a'
p2551
F1.0
sS'" the inquisitor'
p2552
F0.2
sS'from its mighty'
p2553
F1.0
sS'and with the'
p2554
F0.3333333333333333
sS'your own time'
p2555
F1.0
sS'first but saw'
p2556
F1.0
sS'these things. i'
p2557
F0.5
sS"' he said."
p2558
F0.16666666666666666
sS'though i was'
p2559
F0.5
sS'sorcerer with the'
p2560
F1.0
sS'our lord one'
p2561
F1.0
sS'if anything there'
p2562
F1.0
sS'an opening and'
p2563
F0.5
sS'many shining little'
p2564
F1.0
sS"'s assistant of"
p2565
F1.0
sS'is attested beyond'
p2566
F0.5
sS'the fear-stricken hundreds'
p2567
F1.0
sS', such as'
p2568
F1.0
sS'i knew well'
p2569
F0.25
sS"'s edge before"
p2570
F1.0
sS'earth lay far'
p2571
F1.0
sS', but so'
p2572
F0.07692307692307693
sS'it and the'
p2573
F0.25
sS'if the right'
p2574
F1.0
sS'these things. "'
p2575
F0.5
sS'many of these'
p2576
F0.3333333333333333
sS'dreamed that men'
p2577
F1.0
sS'opinion the thunderclaps'
p2578
F1.0
sS', and to'
p2579
F0.025
sS'the future. this'
p2580
F0.3333333333333333
sS'committing the crime'
p2581
F1.0
sS'? another box'
p2582
F1.0
sS'who answered were'
p2583
F1.0
sS'heard it ,'
p2584
F1.0
sS'side of them.'
p2585
F1.0
sS"strive for. '"
p2586
F1.0
sS'awful winds and'
p2587
F1.0
sS'all these were'
p2588
F1.0
sS'terrible a fascination'
p2589
F1.0
sS'found voice to'
p2590
F1.0
sS'by its door.'
p2591
F1.0
sS'but they did'
p2592
F0.3333333333333333
sS', lifting his'
p2593
F1.0
sS'was observed going'
p2594
F1.0
sS'found myself. they'
p2595
F0.3333333333333333
sS', or priests'
p2596
F0.3333333333333333
sS'heard in the'
p2597
F1.0
sS'that one ,'
p2598
F0.5
sS'had been heard'
p2599
F0.14285714285714285
sS'that made the'
p2600
F1.0
sS'time we rolled'
p2601
F1.0
sS'was french they'
p2602
F1.0
sS'had done before.'
p2603
F1.0
sS'things the like'
p2604
F1.0
sS'it were worth'
p2605
F0.3333333333333333
sS'cities , though'
p2606
F1.0
sS'to and fro'
p2607
F1.0
sS'exceeding that of'
p2608
F1.0
sS'myself whirling around'
p2609
F1.0
sS'cried. " \'thicourt'
p2610
F1.0
sS'some were healers'
p2611
F1.0
sS'many questions ,'
p2612
F1.0
sS'scale heaven itself'
p2613
F1.0
sS'the shining glass'
p2614
F1.0
sS'were closed with'
p2615
F1.0
sS'when we pry'
p2616
F0.5
sS'them. they asked'
p2617
F1.0
sS'and then i'
p2618
F0.1
sS'rising from the'
p2619
F1.0
sS'ground-vehicle. it was'
p2620
F1.0
sS'them off again'
p2621
F1.0
sS'with an opening'
p2622
F1.0
sS'was greater than'
p2623
F1.0
sS'way , since'
p2624
F0.5
sS'vast mass of'
p2625
F1.0
sS'a vast ship'
p2626
F1.0
sS'not listen. before'
p2627
F1.0
sS'men , and'
p2628
F1.0
sS'to your own'
p2629
F1.0
sS'thicourt took me'
p2630
F1.0
sS'men such as'
p2631
F1.0
sS'which fishes are'
p2632
F1.0
sS'the thunderclaps were'
p2633
F0.25
sS'that never men'
p2634
F1.0
sS'" he said'
p2635
F0.125
sS'was no animal'
p2636
F1.0
sS'for hundreds of'
p2637
F1.0
sS'had been given'
p2638
F0.14285714285714285
sS'dagger. there were'
p2639
F1.0
sS', i was'
p2640
F0.08333333333333333
sS'only knew that'
p2641
F1.0
sS'not now in'
p2642
F1.0
sS'! " we'
p2643
F0.1
sS'man was saying'
p2644
F0.3333333333333333
sS'fourteen hundred and'
p2645
F1.0
sS'the future --'
p2646
F0.25
sS'a babble of'
p2647
F1.0
sS'had spoken minutes'
p2648
F1.0
sS'future -- who'
p2649
F1.0
sS'but tush --'
p2650
F1.0
sS"car 's front"
p2651
F1.0
sS'and i was'
p2652
F0.1
sS'" i looked'
p2653
F0.1111111111111111
sS'seem to you'
p2654
F1.0
sS'of june was'
p2655
F0.5
sS'power than any'
p2656
F1.0
sS'rotating the time-dimensions'
p2657
F1.0
sS'me. then the'
p2658
F0.5
sS', thicourt ,'
p2659
F1.0
sS'these thunderclaps began'
p2660
F1.0
sS'could not have'
p2661
F0.14285714285714285
sS'we were passing'
p2662
F1.0
sS'on to tell'
p2663
F1.0
sS'of the thunderclaps'
p2664
F0.03125
sS', or dimension'
p2665
F0.3333333333333333
sS'its walls were'
p2666
F1.0
sS'the metal circle'
p2667
F1.0
sS'they saw ,'
p2668
F0.3333333333333333
sS'to go ,'
p2669
F0.25
sS'gazing through giant'
p2670
F1.0
sS', as the'
p2671
F0.3333333333333333
sS'before my eyes'
p2672
F1.0
sS'forty-four with offending'
p2673
F1.0
sS'i thought they'
p2674
F0.3333333333333333
sS'ship sailing in'
p2675
F1.0
sS'* " mother'
p2676
F0.25
sS'held a dreaming'
p2677
F1.0
sS'wonder and yet'
p2678
F1.0
sS'sinking westward ,'
p2679
F1.0
sS'field , ones'
p2680
F0.25
sS'seemed to land'
p2681
F0.25
sS'and walls ,'
p2682
F1.0
sS'of which i'
p2683
F1.0
sS'as we went'
p2684
F1.0
sS'work.'
p2685
F1.0
sS'leagues separated from'
p2686
F1.0
sS'which were many'
p2687
F1.0
sS'\' " \'they'
p2688
F0.08333333333333333
sS'darkness had descended'
p2689
F1.0
sS'be on the'
p2690
F1.0
sS'instruments , such'
p2691
F1.0
sS'ones that roared'
p2692
F1.0
sS'circle , henri'
p2693
F1.0
sS'many thousands of'
p2694
F1.0
sS'plump and bare'
p2695
F1.0
sS'and there were'
p2696
F0.3333333333333333
sS'we had gone'
p2697
F1.0
sS'out. mother of'
p2698
F1.0
sS'tubes fixed on'
p2699
F1.0
sS'made me curious.'
p2700
F0.5
sS'my confidence returning.'
p2701
F1.0
sS'he had brought'
p2702
F0.2
sS'and examens on'
p2703
F1.0
sS'many people in'
p2704
F0.3333333333333333
sS'were many shining'
p2705
F0.2
sS'the familiar gray'
p2706
F0.5
sS'the other replied.'
p2707
F0.14285714285714285
sS'cords of wire'
p2708
F1.0
sS'city , its'
p2709
F0.3333333333333333
sS'and then he'
p2710
F0.1
sS'five solid centuries'
p2711
F1.0
sS'of our time'
p2712
F0.5
sS'but very comfortable'
p2713
F1.0
sS'i still kept'
p2714
F1.0
sS'turned it ,'
p2715
F1.0
sS"he answered. 'we"
p2716
F1.0
sS'somewhere in the'
p2717
F1.0
sS'before their own'
p2718
F1.0
sS'said. the two'
p2719
F1.0
sS'coat that they'
p2720
F1.0
sS"'those are what"
p2721
F1.0
sS'forward. faster and'
p2722
F1.0
sS'sat side by'
p2723
F1.0
sS': illustrated by'
p2724
F1.0
sS'on ! "'
p2725
F1.0
sS'were of stone'
p2726
F1.0
sS'to the parchment'
p2727
F0.058823529411764705
sS'great ships of'
p2728
F1.0
sS'them sprang forward.'
p2729
F1.0
sS'roared above the'
p2730
F1.0
sS'from about me.'
p2731
F1.0
sS'by these men'
p2732
F0.3333333333333333
sS'at the outskirts'
p2733
F0.07692307692307693
sS'to the ground-vehicle.'
p2734
F0.058823529411764705
sS'who was my'
p2735
F1.0
sS'\' " \'he'
p2736
F0.08333333333333333
sS'they could. much'
p2737
F1.0
sS'not halt them.'
p2738
F1.0
sS"'nonsense ! '"
p2739
F1.0
sS'other mighty cities'
p2740
F1.0
sS'sitter that i'
p2741
F1.0
sS'mists before the'
p2742
F1.0
sS'connected to many'
p2743
F1.0
sS'years before to'
p2744
F1.0
sS'sorcerer and a'
p2745
F1.0
sS'and yet excited'
p2746
F0.5
sS'their men of'
p2747
F1.0
sS'lothiere spoke ,'
p2748
F1.0
sS'and faster along'
p2749
F1.0
sS', ones different'
p2750
F1.0
sS'them , for'
p2751
F0.2
sS'sometimes those who'
p2752
F1.0
sS'showed me also'
p2753
F0.5
sS'i trembled. what'
p2754
F1.0
sS'and his face'
p2755
F0.3333333333333333
sS'pointed to the'
p2756
F1.0
sS', but such'
p2757
F0.07692307692307693
sS'i could see'
p2758
F0.25
sS'thicourt in seats'
p2759
F1.0
sS'even ! they'
p2760
F1.0
sS'try to understand.'
p2761
F1.0
sS"'no , henri"
p2762
F1.0
sS'could make out'
p2763
F1.0
sS'a dreaming strength'
p2764
F1.0
sS'youth , to'
p2765
F1.0
sS'died years before.'
p2766
F1.0
sS'which i could'
p2767
F0.25
sS'almost to the'
p2768
F1.0
sS'was dressed in'
p2769
F1.0
sS'it was like'
p2770
F0.045454545454545456
sS'it , flashing'
p2771
F0.14285714285714285
sS'around it great'
p2772
F0.5
sS'city ! climbing'
p2773
F1.0
sS'someone through at'
p2774
F1.0
sS', the thunderclaps'
p2775
F0.1111111111111111
sS'from the window.'
p2776
F0.06666666666666667
sS'were watching very'
p2777
F0.5
sS'you. " jean'
p2778
F1.0
sS'glass tubes on'
p2779
F0.5
sS'buildings and along'
p2780
F0.5
sS'between them whose'
p2781
F1.0
sS'crime of sorcery.'
p2782
F1.0
sS'a mighty city'
p2783
F1.0
sS'was a week'
p2784
F0.2
sS'regarded the prisoner'
p2785
F1.0
sS'had before him'
p2786
F1.0
sS'it had been'
p2787
F0.25
sS', they did'
p2788
F0.25
sS'found myself. as'
p2789
F0.3333333333333333
sS'understand. rastin began'
p2790
F1.0
sS'people gathered around'
p2791
F1.0
sS'of their feat'
p2792
F0.5
sS'" he got'
p2793
F0.125
sS'them. " \'where'
p2794
F0.2
sS'ships of the'
p2795
F1.0
sS'my eyes before'
p2796
F0.16666666666666666
sS'people , great'
p2797
F0.5
sS'and a sound'
p2798
F0.2
sS'was the power'
p2799
F1.0
sS'had worn outside'
p2800
F1.0
sS'had yet seen'
p2801
F1.0
sS'the year fourteen'
p2802
F0.5
sS'so smooth and'
p2803
F1.0
sS'of black metal'
p2804
F0.5
sS'that it was'
p2805
F0.25
sS'never heard before.'
p2806
F0.5
sS'would summon the'
p2807
F1.0
sS'felt my confidence'
p2808
F1.0
sS'with it i'
p2809
F1.0
sS'been caused by'
p2810
F1.0
sS'or devils ?'
p2811
F1.0
sS', lying upon'
p2812
F1.0
sS'people moved to'
p2813
F1.0
sS'the argument ,'
p2814
F1.0
sS'eyes and ears'
p2815
F0.5
sS'that set them'
p2816
F1.0
sS'disk on the'
p2817
F1.0
sS'them. " \'you'
p2818
F0.2
sS'none challenged my'
p2819
F1.0
sS'in the broad'
p2820
F0.04
sS'distance. i reached'
p2821
F1.0
sS'lorentz. i was'
p2822
F1.0
sS'the stars were'
p2823
F0.5
sS'should not believe'
p2824
F1.0
sS'rows on rows'
p2825
F1.0
sS'at the same'
p2826
F0.07692307692307693
sS'it , and'
p2827
F0.14285714285714285
sS'i dug in'
p2828
F1.0
sS'something in me'
p2829
F1.0
sS'i was. "'
p2830
F1.0
sS'of new york'
p2831
F1.0
sS'to know and'
p2832
F0.25
sS', there was'
p2833
F1.0
sS'could scarce understand.'
p2834
F1.0
sS'too , was'
p2835
F0.5
sS'two of their'
p2836
F0.5
sS'the ship. a'
p2837
F1.0
sS'me stand up'
p2838
F1.0
sS'rather than through'
p2839
F1.0
sS"'ll take you"
p2840
F1.0
sS'were many great'
p2841
F0.2
sS'in the streets'
p2842
F0.04
sS'passing beneath it.'
p2843
F1.0
sS'of this time'
p2844
F0.5
sS'eyes -- would'
p2845
F1.0
sS"saying , 'impossible"
p2846
F1.0
sS'take you ,'
p2847
F1.0
sS'of metal on'
p2848
F0.5
sS'to hum ,'
p2849
F1.0
sS', with flat'
p2850
F0.3333333333333333
sS', many hundreds'
p2851
F0.5
sS'me and brought'
p2852
F0.3333333333333333
sS'once , what'
p2853
F0.5
sS'beneath narrow streets'
p2854
F1.0
sS"'you don 't"
p2855
F1.0
sS'from part of'
p2856
F1.0
sS'face , saying'
p2857
F1.0
sS'levers beside him.'
p2858
F1.0
sS'started the examinations'
p2859
F1.0
sS'along wider streets'
p2860
F1.0
sS'all seemed dressed'
p2861
F1.0
sS'to be almost'
p2862
F0.16666666666666666
sS'suddenly another thunderclap'
p2863
F1.0
sS'could. much they'
p2864
F1.0
sS'plates on which'
p2865
F1.0
sS'ox , that'
p2866
F1.0
sS'to their building'
p2867
F0.5
sS'the strange vehicles'
p2868
F1.0
sS'the air above'
p2869
F0.16666666666666666
sS'! it was'
p2870
F1.0
sS'to bump. i'
p2871
F1.0
sS'they were both'
p2872
F0.09090909090909091
sS'and then in'
p2873
F0.1
sS'is this now'
p2874
F1.0
sS"'surely , sirs"
p2875
F1.0
sS'itself ! far'
p2876
F1.0
sS'and then it'
p2877
F0.1
sS'to be heard'
p2878
F0.16666666666666666
sS'the time-dimensions at'
p2879
F1.0
sS'all were lord'
p2880
F0.3333333333333333
sS'were great suns'
p2881
F0.5
sS'would not be'
p2882
F1.0
sS'them. " he'
p2883
F0.2
sS'on that ship'
p2884
F0.5
sS'maze at their'
p2885
F1.0
sS'origin , and'
p2886
F1.0
sS', to another'
p2887
F0.125
sS'future is that'
p2888
F1.0
sS'them how ,'
p2889
F0.5
sS'! " i'
p2890
F0.1
sS'sun sinking westward'
p2891
F1.0
sS'people. i seemed'
p2892
F1.0
sS', and then'
p2893
F0.025
sS"henri ? '"
p2894
F1.0
sS'time , his'
p2895
F0.25
sS'was. " we'
p2896
F1.0
sS'the room with'
p2897
F0.3333333333333333
sS'were watching ,'
p2898
F0.5
sS'vanished. i saw'
p2899
F1.0
sS'priests or peasants.'
p2900
F1.0
sS'to take certain'
p2901
F1.0
sS'i could understand'
p2902
F0.25
sS'of leagues in'
p2903
F0.3333333333333333
sS'lothiere. jean de'
p2904
F1.0
sS"' thicourt asked."
p2905
F0.5
sS"' said rastin"
p2906
F0.5
sS'time a thing'
p2907
F1.0
sS'matter be rotated'
p2908
F1.0
sS'a hat of'
p2909
F1.0
sS'the city. it'
p2910
F0.5
sS'street it went'
p2911
F1.0
sS', am no'
p2912
F1.0
sS'happened in that'
p2913
F1.0
sS'vehicles stood at'
p2914
F1.0
sS'soldiers who stood'
p2915
F1.0
sS'the hum of'
p2916
F1.0
sS'many terms and'
p2917
F1.0
sS'staring at them.'
p2918
F1.0
sS'some. all were'
p2919
F1.0
sS'from the earth'
p2920
F0.06666666666666667
sS'had occurred to'
p2921
F1.0
sS'wondered. yet they'
p2922
F1.0
sS'is that they'
p2923
F1.0
sS'its mysteries ,'
p2924
F1.0
sS'flying ! "'
p2925
F0.5
sS'there be that'
p2926
F1.0
sS'these sheets would'
p2927
F1.0
sS'that i did'
p2928
F0.1
sS'gathered there to'
p2929
F1.0
sS'closed my eyes'
p2930
F1.0
sS'belt. it turned'
p2931
F1.0
sS'of the air'
p2932
F0.03125
sS'there he was'
p2933
F1.0
sS'must adjudge you'
p2934
F1.0
sS'was whirling. "'
p2935
F1.0
sS'their position ,'
p2936
F1.0
sS'of them sprang'
p2937
F0.125
sS'before your eyes'
p2938
F1.0
sS"? ' asked"
p2939
F0.14285714285714285
sS'be -- "'
p2940
F1.0
sS'a mere measurement'
p2941
F1.0
sS'or what would'
p2942
F1.0
sS'he asked me.'
p2943
F0.5
sS'sire. and to'
p2944
F1.0
sS'pulling or pushing'
p2945
F1.0
sS', that i'
p2946
F0.1111111111111111
sS'the thunder of'
p2947
F1.0
sS'back before your'
p2948
F1.0
sS'applied it to'
p2949
F1.0
sS'there was too'
p2950
F0.16666666666666666
sS'learned. " so'
p2951
F1.0
sS'then i cried'
p2952
F0.5
sS'and thicourt ,'
p2953
F0.16666666666666666
sS'then it too'
p2954
F1.0
sS'the unholy spot'
p2955
F1.0
sS'no men i'
p2956
F1.0
sS'land appearing from'
p2957
F1.0
sS'huge vessel of'
p2958
F1.0
sS'to the file'
p2959
F0.058823529411764705
sS'wires inside ,'
p2960
F1.0
sS", 'but first"
p2961
F1.0
sS'me in. thicourt'
p2962
F1.0
sS'speak thus ?'
p2963
F1.0
sS'own master !'
p2964
F1.0
sS"'but first your"
p2965
F1.0
sS"'s center ,"
p2966
F0.5
sS', and talked'
p2967
F0.025
sS'buttons , while'
p2968
F1.0
sS'their dispute broke'
p2969
F1.0
sS'seen. some seemed'
p2970
F1.0
sS'and the wheel'
p2971
F0.07142857142857142
sS'\' " \'but'
p2972
F0.08333333333333333
sS'in that wild'
p2973
F0.16666666666666666
sS'on the circle'
p2974
F0.1111111111111111
sS'upon you. "'
p2975
F1.0
sS'must go --'
p2976
F1.0
sS'watched the pictures'
p2977
F1.0
sS'more power than'
p2978
F1.0
sS'things that had'
p2979
F0.16666666666666666
sS'instruments. there he'
p2980
F1.0
sS'and the manner'
p2981
F0.07142857142857142
sS'shrank back ,'
p2982
F1.0
sS'darkness , the'
p2983
F1.0
sS"'you are a"
p2984
F1.0
sS'the paris of'
p2985
F1.0
sS'" we came'
p2986
F0.3333333333333333
sS'was silence in'
p2987
F1.0
sS'and i nodded'
p2988
F0.1
sS'truth in that'
p2989
F0.5
sS'that these had'
p2990
F1.0
sS', since such'
p2991
F0.5
sS'it being suspected'
p2992
F1.0
sS'knew , being'
p2993
F1.0
sS'around and falling'
p2994
F0.5
sS'be almost a'
p2995
F1.0
sS'that city was'
p2996
F1.0
sS'went toward those'
p2997
F1.0
sS'hundreds inside them.'
p2998
F1.0
sS'voice gaining in'
p2999
F1.0
sS'open fields behind'
p3000
F1.0
sS'accused , henri'
p3001
F1.0
sS'city. it was'
p3002
F1.0
sS', i looked'
p3003
F0.08333333333333333
sS'sheets would take'
p3004
F1.0
sS'side ! "'
p3005
F1.0
sS'hundreds of men'
p3006
F0.25
sS'of knowledge to'
p3007
F0.2
sS'since you were'
p3008
F1.0
sS'other scientists or'
p3009
F1.0
sS'that he would'
p3010
F0.3333333333333333
sS'grasped my hand.'
p3011
F1.0
sS'that moment. i'
p3012
F0.5
sS'told me that'
p3013
F0.25
sS'when these thunderclaps'
p3014
F1.0
sS'with a brilliant'
p3015
F0.5
sS', he was'
p3016
F0.3333333333333333
sS'spoke to men'
p3017
F0.5
sS'understood him clearly'
p3018
F1.0
sS"' he said"
p3019
F0.16666666666666666
sS'could not understand.'
p3020
F0.14285714285714285
sS'that earth moved'
p3021
F0.5
sS'that room of'
p3022
F1.0
sS'gone for hundreds'
p3023
F0.5
sS'and applied it'
p3024
F1.0
sS'causing them. i'
p3025
F1.0
sS'wonderful , and'
p3026
F1.0
sS'to them they'
p3027
F1.0
sS'air passed us'
p3028
F1.0
sS'and this ,'
p3029
F1.0
sS'that in doing'
p3030
F0.5
sS'out of my'
p3031
F0.2
sS'its shock ,'
p3032
F1.0
sS'" \'he doesn'
p3033
F0.5
sS'the sight of'
p3034
F1.0
sS"repeated. 'well ,"
p3035
F1.0
sS'with another man'
p3036
F1.0
sS'sorcerer if i'
p3037
F1.0
sS'" i had'
p3038
F0.1111111111111111
sS'marvels in that'
p3039
F1.0
sS'smaller ships were'
p3040
F1.0
sS'me. giant metal'
p3041
F1.0
sS'thought it a'
p3042
F0.5
sS'were still talking'
p3043
F1.0
sS'i asked of'
p3044
F1.0
sS'! people --'
p3045
F1.0
sS'knew not. they'
p3046
F1.0
sS'scooped in an'
p3047
F1.0
sS'they should not'
p3048
F1.0
sS'at terrible speed'
p3049
F1.0
sS'the earth and'
p3050
F0.3333333333333333
sS'had seen from'
p3051
F0.5
sS'he was a'
p3052
F0.3333333333333333
sS'another ? have'
p3053
F1.0
sS'-- what century'
p3054
F0.25
sS'upward as though'
p3055
F1.0
sS'" so i'
p3056
F1.0
sS', the city'
p3057
F0.1111111111111111
sS'us in the'
p3058
F1.0
sS'of them seemed'
p3059
F0.125
sS'metal on the'
p3060
F1.0
sS'saw the sea'
p3061
F0.5
sS"you , '"
p3062
F0.25
sS'thunder seemed to'
p3063
F1.0
sS'window and see'
p3064
F1.0
sS'side , on'
p3065
F1.0
sS'birds , and'
p3066
F1.0
sS'carriages , undrawn'
p3067
F1.0
sS'forward. " you'
p3068
F1.0
sS'of them to'
p3069
F0.125
sS'were men such'
p3070
F0.5
sS'of the returning'
p3071
F0.03125
sS'smoothly down to'
p3072
F1.0
sS'master ! it'
p3073
F1.0
sS', and seized'
p3074
F0.025
sS'seen and i'
p3075
F1.0
sS'apple , and'
p3076
F1.0
sS'trials. i could'
p3077
F1.0
sS'had never seen.'
p3078
F0.25
sS'causing the thunderclaps'
p3079
F1.0
sS'city. * *'
p3080
F1.0
sS'understand but little.'
p3081
F0.5
sS'wheel at the'
p3082
F1.0
sS'coming nearer us'
p3083
F1.0
sS'so had been'
p3084
F1.0
sS'it was not'
p3085
F0.045454545454545456
sS'the inquisitor of'
p3086
F0.3333333333333333
sS'here from his'
p3087
F1.0
sS'what i saw.'
p3088
F0.25
sS'were seen to'
p3089
F1.0
sS'find that two'
p3090
F1.0
sS'to this time'
p3091
F0.5
sS'of heavy hinges'
p3092
F1.0
sS'there were square'
p3093
F0.14285714285714285
sS'same moment that'
p3094
F1.0
sS'room to the'
p3095
F1.0
sS'illustrated by morey'
p3096
F1.0
sS"'s voice came"
p3097
F1.0
sS'upon the morning'
p3098
F0.5
sS'i staggered back'
p3099
F1.0
sS'day. upon that'
p3100
F1.0
sS', its turning'
p3101
F0.5
sS'about us. we'
p3102
F1.0
sS'and terrible city'
p3103
F1.0
sS'i did believe'
p3104
F0.25
sS'and straight-hanging garments'
p3105
F1.0
sS'me to tell'
p3106
F0.25
sS'himself of absurd'
p3107
F1.0
sS'then , the'
p3108
F0.5
sS'them came terrible'
p3109
F0.5
sS', and was'
p3110
F0.025
sS'like an apple'
p3111
F1.0
sS'one time to'
p3112
F1.0
sS'flying in the'
p3113
F1.0
sS'strange , that'
p3114
F0.5
sS'the air about'
p3115
F0.16666666666666666
sS'stood there on'
p3116
F1.0
sS"to me. 'stand"
p3117
F0.5
sS'fro over the'
p3118
F1.0
sS"' he asked."
p3119
F0.16666666666666666
sS'and what i'
p3120
F1.0
sS'the vehicles stood'
p3121
F1.0
sS'almost a different'
p3122
F1.0
sS'working miraculous cures'
p3123
F1.0
sS'de marselait read'
p3124
F0.3333333333333333
sS'that i understood'
p3125
F0.1
sS'in time ,'
p3126
F1.0
sS'return to it'
p3127
F0.5
sS'only a word'
p3128
F0.5
sS'rolled out over'
p3129
F1.0
sS'when rastin touched'
p3130
F1.0
sS'looked out. mother'
p3131
F1.0
sS'much the same.'
p3132
F1.0
sS'appalled me. giant'
p3133
F1.0
sS'none so terrible'
p3134
F1.0
sS'could ever have'
p3135
F1.0
sS'buffeted as though'
p3136
F1.0
sS'and with so'
p3137
F0.3333333333333333
sS"i asked. 'is"
p3138
F0.5
sS'me as best'
p3139
F0.3333333333333333
sS'its lower part'
p3140
F1.0
sS'we went. the'
p3141
F1.0
sS"doesn 't understand"
p3142
F1.0
sS'were moving as'
p3143
F0.5
sS'that roared above'
p3144
F1.0
sS'on that afternoon'
p3145
F0.5
sS'" i felt'
p3146
F0.1111111111111111
sS'stretching away almost'
p3147
F1.0
sS'through a great'
p3148
F0.5
sS'five hundred years'
p3149
F1.0
sS'upon the buildings'
p3150
F0.5
sS'and phrases ,'
p3151
F1.0
sS'had shown me'
p3152
F1.0
sS'by many of'
p3153
F0.25
sS', gentlemen ,'
p3154
F1.0
sS'to each other'
p3155
F1.0
sS"'they 'll say"
p3156
F1.0
sS'desire to delve'
p3157
F0.5
sS"henri , '"
p3158
F0.3333333333333333
sS'got out of'
p3159
F1.0
sS'returning. these were'
p3160
F1.0
sS'the part of'
p3161
F1.0
sS'i looked from'
p3162
F0.2
sS'bent , and'
p3163
F1.0
sS'i had heard'
p3164
F0.05263157894736842
sS'were both greatly'
p3165
F1.0
sS'on the third'
p3166
F0.1111111111111111
sS'mighty city ,'
p3167
F0.3333333333333333
sS'had never seen'
p3168
F0.25
sS'dead woman singing'
p3169
F1.0
sS'all the air'
p3170
F0.2
sS'one great rock'
p3171
F1.0
sS'though , of'
p3172
F0.5
sS'inquisitor. the latter'
p3173
F1.0
sS', as though'
p3174
F0.3333333333333333
sS'grew louder. then'
p3175
F1.0
sS'the sun sinking'
p3176
F1.0
sS'had happened to'
p3177
F0.5
sS'of smooth metal'
p3178
F1.0
sS'the power of'
p3179
F1.0
sS', the light'
p3180
F0.1111111111111111
sS'all doubt. "'
p3181
F1.0
sS'the penalty of'
p3182
F1.0
sS'thing vanished. i'
p3183
F1.0
sS'" all around'
p3184
F0.5
sS'ocean that never'
p3185
F1.0
sS'penalty of death'
p3186
F1.0
sS', but excited'
p3187
F0.07692307692307693
sS'said then that'
p3188
F1.0
sS'excitedly so fast'
p3189
F1.0
sS'awful falling sensation'
p3190
F1.0
sS'of metal. i'
p3191
F1.0
sS'the spot when'
p3192
F0.25
sS'he touched these'
p3193
F1.0
sS', turned to'
p3194
F1.0
sS'mysteries , but'
p3195
F1.0
sS'saw that there'
p3196
F0.3333333333333333
sS'even a dagger.'
p3197
F1.0
sS'talking excitedly ,'
p3198
F1.0
sS'what they were'
p3199
F0.3333333333333333
sS'the planets ,'
p3200
F1.0
sS'in length ,'
p3201
F1.0
sS'then told me'
p3202
F1.0
sS'have me for'
p3203
F1.0
sS'call goodbye to'
p3204
F1.0
sS'other winged cars'
p3205
F1.0
sS'still kept going'
p3206
F1.0
sS'again with his'
p3207
F1.0
sS'-- what year'
p3208
F0.25
sS'i nodded weakly.'
p3209
F1.0
sS'shook my head.'
p3210
F1.0
sS'in the air'
p3211
F0.04
sS'familiar gray little'
p3212
F1.0
sS'there was silence'
p3213
F0.16666666666666666
sS'stars , and'
p3214
F1.0
sS'to his. he'
p3215
F1.0
sS'other , grinning.'
p3216
F0.3333333333333333
sS'that for long'
p3217
F1.0
sS'began to be'
p3218
F0.14285714285714285
sS'on the box'
p3219
F0.1111111111111111
sS'distant time in'
p3220
F1.0
sS'many , like'
p3221
F1.0
sS'solid centuries ,'
p3222
F1.0
sS'death by fire.'
p3223
F1.0
sS'field heard him'
p3224
F1.0
sS'not comprehend ,'
p3225
F1.0
sS'and that heaven'
p3226
F0.1111111111111111
sS'shock , i'
p3227
F1.0
sS'lying. " all'
p3228
F1.0
sS'projections on either'
p3229
F1.0
sS'this spot ,'
p3230
F1.0
sS'great building into'
p3231
F1.0
sS'surely , that'
p3232
F1.0
sS'in great symbols'
p3233
F1.0
sS'box or cabinet'
p3234
F1.0
sS'different from any'
p3235
F0.5
sS'were sailing to'
p3236
F1.0
sS'buildings ! people'
p3237
F1.0
sS'field , fearful'
p3238
F0.25
sS'you may now'
p3239
F0.5
sS'midnight , another'
p3240
F1.0
sS'feat , and'
p3241
F1.0
sS', even but'
p3242
F1.0
sS'growing amazement. for'
p3243
F1.0
sS'then he shook'
p3244
F0.5
sS'the other. then'
p3245
F0.5
sS'passed us and'
p3246
F1.0
sS'square black plates'
p3247
F1.0
sS'word here and'
p3248
F1.0
sS'a loud roaring'
p3249
F1.0
sS'ceased in a'
p3250
F1.0
sS'he was watched'
p3251
F0.3333333333333333
sS'door. a word'
p3252
F1.0
sS', inquisitor extraordinary'
p3253
F1.0
sS'the accused ,'
p3254
F1.0
sS'and still others'
p3255
F0.5
sS'from that window'
p3256
F1.0
sS'sorcerer of power'
p3257
F1.0
sS'had been on'
p3258
F0.14285714285714285
sS'on millions of'
p3259
F1.0
sS'of god ,'
p3260
F1.0
sS"' said the"
p3261
F0.5
sS'time to this'
p3262
F0.2
sS'! i trembled.'
p3263
F0.2
sS'or hose. instead'
p3264
F1.0
sS'ones following me'
p3265
F1.0
sS'length , tapering'
p3266
F1.0
sS', and those'
p3267
F0.025
sS'lifted me up'
p3268
F1.0
sS'is different --'
p3269
F1.0
sS'they led me'
p3270
F1.0
sS'confidence returning. these'
p3271
F1.0
sS'tell that from'
p3272
F1.0
sS'me. he spoke'
p3273
F1.0
sS'you must try'
p3274
F1.0
sS'it was an'
p3275
F0.045454545454545456
sS'" \'how ?'
p3276
F1.0
sS'fate , and'
p3277
F1.0
sS'was a new'
p3278
F0.2
sS"'i want to"
p3279
F1.0
sS'man never dreamed'
p3280
F1.0
sS', and a'
p3281
F0.025
sS', but very'
p3282
F0.07692307692307693
sS'light exceeding that'
p3283
F1.0
sS'dressed in as'
p3284
F0.5
sS', and i'
p3285
F0.025
sS'all around the'
p3286
F1.0
sS'dressed like the'
p3287
F1.0
sS'the sky ,'
p3288
F1.0
sS"eyes ! '"
p3289
F0.5
sS'thousands of leagues'
p3290
F0.3333333333333333
sS'the field and'
p3291
F0.125
sS'might do ,'
p3292
F0.5
sS'a word from'
p3293
F0.3333333333333333
sS'the sound subsided.'
p3294
F1.0
sS'a black disk'
p3295
F1.0
sS'now had lords'
p3296
F1.0
sS'and on the'
p3297
F1.0
sS'been troubled by'
p3298
F1.0
sS', coming and'
p3299
F1.0
sS'streets pierced through'
p3300
F1.0
sS'to many machines.'
p3301
F1.0
sS'a wild thrilling'
p3302
F1.0
sS'showed great mechanisms'
p3303
F1.0
sS'the dead woman'
p3304
F0.5
sS'been. " \'you'
p3305
F1.0
sS'it had always'
p3306
F0.25
sS'different ones that'
p3307
F1.0
sS'read from it'
p3308
F1.0
sS', you know'
p3309
F0.25
sS"one. 'what time"
p3310
F0.5
sS'lothiere did vanish'
p3311
F0.5
sS'fear them so'
p3312
F1.0
sS"'henri lothiere ,"
p3313
F1.0
sS'as though themselves'
p3314
F0.125
sS'back. " one'
p3315
F1.0
sS'he waved his'
p3316
F1.0
sS'and roaring there'
p3317
F1.0
sS'as only the'
p3318
F1.0
sS'been in a'
p3319
F1.0
sS"city 's outskirts."
p3320
F1.0
sS'them they cried'
p3321
F1.0
sS"a woman 's"
p3322
F1.0
sS'of absurd speculations.'
p3323
F1.0
sS'! one was'
p3324
F1.0
sS'in sorcery. upon'
p3325
F1.0
sS'smooth and seamless'
p3326
F0.3333333333333333
sS'i had spent'
p3327
F0.05263157894736842
sS'great thunderclap ,'
p3328
F1.0
sS'or oars ,'
p3329
F1.0
sS'quickly by machines.'
p3330
F1.0
sS'was night now'
p3331
F1.0
sS'that our sun'
p3332
F1.0
sS'frowns when we'
p3333
F1.0
sS', and he'
p3334
F0.025
sS'range of great'
p3335
F1.0
sS'so , that'
p3336
F1.0
sS'see if you'
p3337
F1.0
sS'man , rastin'
p3338
F0.5
sS'that their men'
p3339
F0.3333333333333333
sS'! i was'
p3340
F0.2
sS'offending against god'
p3341
F1.0
sS'too. the white-bearded'
p3342
F1.0
sS'! " then'
p3343
F0.1
sS'the other scientists'
p3344
F0.14285714285714285
sS'been heard at'
p3345
F0.5
sS'great shape coming'
p3346
F1.0
sS"he repeated. 'well"
p3347
F1.0
sS'said that their'
p3348
F0.1
sS'terrible city that'
p3349
F1.0
sS'or rotate matter'
p3350
F1.0
sS'! " they'
p3351
F0.1
sS'" is charged'
p3352
F1.0
sS'cannot change the'
p3353
F1.0
sS'did in spite'
p3354
F1.0
sS'sire , that'
p3355
F0.5
sS'breadth or thickness.'
p3356
F1.0
sS', being so'
p3357
F1.0
sS', how is'
p3358
F1.0
sS'mechanisms grew louder.'
p3359
F1.0
sS'them seemed afraid.'
p3360
F1.0
sS'a city !'
p3361
F0.5
sS'of many levels'
p3362
F0.5
sS'such a room'
p3363
F0.25
sS'in it were'
p3364
F0.3333333333333333
sS'" rastin smiled.'
p3365
F0.3333333333333333
sS'humming sound came'
p3366
F0.5
sS'sentence you will'
p3367
F1.0
sS'of the king'
p3368
F0.03125
sS'center as swiftly'
p3369
F1.0
sS'questions , part'
p3370
F1.0
sS'been given my'
p3371
F1.0
sS'what was causing'
p3372
F1.0
sS'time and they'
p3373
F1.0
sS'hundreds around the'
p3374
F1.0
sS'eyes. i was'
p3375
F1.0
sS"last ! '"
p3376
F1.0
sS'and great airships'
p3377
F0.5
sS'over me. i'
p3378
F0.5
sS'of my own'
p3379
F0.3333333333333333
sS'eyes , then'
p3380
F1.0
sS'aside the cloak'
p3381
F1.0
sS'than through glass.'
p3382
F1.0
sS'the hellish uproar'
p3383
F1.0
sS'by these things'
p3384
F0.3333333333333333
sS'he got a'
p3385
F1.0
sS'ones different from'
p3386
F1.0
sS'then to me'
p3387
F1.0
sS'this one ,'
p3388
F1.0
sS'as though birds.'
p3389
F0.125
sS'also attested that'
p3390
F1.0
sS'and that double-blade'
p3391
F0.1111111111111111
sS'the buildings above'
p3392
F0.5
sS'and priest and'
p3393
F1.0
sS'by many that'
p3394
F0.25
sS'in some way.'
p3395
F0.5
sS', a half-glimpsed'
p3396
F0.25
sS'in the room'
p3397
F0.04
sS'stop. others had'
p3398
F1.0
sS'by many to'
p3399
F0.25
sS'my people there'
p3400
F1.0
sS'speaking thousands of'
p3401
F1.0
sS'henri lothiere. jean'
p3402
F1.0
sS'moment. i heard'
p3403
F1.0
sS'shook his head.'
p3404
F1.0
sS'men had crossed.'
p3405
F1.0
sS'and gleaming. there'
p3406
F1.0
sS'i had dreamed'
p3407
F0.05263157894736842
sS'black offense ,'
p3408
F1.0
sS'time at the'
p3409
F1.0
sS'at my clothes'
p3410
F1.0
sS'final sentence is'
p3411
F1.0
sS'was by these'
p3412
F1.0
sS'measurements to another'
p3413
F1.0
sS'thicourt laughed and'
p3414
F1.0
sS'summon the other'
p3415
F1.0
sS'disputed with rastin'
p3416
F1.0
sS'there that was'
p3417
F1.0
sS'other in their'
p3418
F1.0
sS'some way. a'
p3419
F1.0
sS'my side !'
p3420
F1.0
sS'" he pointed'
p3421
F0.125
sS'worn outside ,'
p3422
F1.0
sS'such a man'
p3423
F0.25
sS'i turned to'
p3424
F1.0
sS'black plates on'
p3425
F1.0
sS'the thunderclaps sounded.'
p3426
F0.25
sS'that in his'
p3427
F0.5
sS'word or two'
p3428
F1.0
sS'position , we'
p3429
F1.0
sS'that i took'
p3430
F0.1
sS'heard before ,'
p3431
F1.0
sS'swiftly and as'
p3432
F1.0
sS'in a room'
p3433
F0.14285714285714285
sS'we landed there'
p3434
F1.0
sS'king , praying'
p3435
F1.0
sS'men. they all'
p3436
F1.0
sS'it from the'
p3437
F1.0
sS', toward which'
p3438
F1.0
sS'his pen to'
p3439
F1.0
sS'terms and words'
p3440
F1.0
sS'fields behind them'
p3441
F1.0
sS'a man would'
p3442
F0.3333333333333333
sS"'they will never"
p3443
F1.0
sS'uncrossed western ocean'
p3444
F1.0
sS'said that none'
p3445
F0.1
sS'that you can'
p3446
F1.0
sS'that to write'
p3447
F1.0
sS'me that vast'
p3448
F0.3333333333333333
sS'of excited negatives'
p3449
F0.5
sS'spoke into the'
p3450
F1.0
sS'outside , they'
p3451
F1.0
sS'the spot at'
p3452
F0.25
sS'streets , my'
p3453
F1.0
sS'and it was'
p3454
F1.0
sS'henri lothiere did'
p3455
F0.25
sS'torchlit room to'
p3456
F1.0
sS'squires , or'
p3457
F1.0
sS"believe , '"
p3458
F0.5
sS'as swiftly and'
p3459
F1.0
sS'rotate matter from'
p3460
F1.0
sS'closely. thicourt did'
p3461
F1.0
sS'going inside ,'
p3462
F1.0
sS'the sounds quickly'
p3463
F1.0
sS'the ship ,'
p3464
F0.25
sS'he asked. "'
p3465
F1.0
sS'had always been.'
p3466
F0.3333333333333333
sS'was as it'
p3467
F1.0
sS'whispered that i'
p3468
F1.0
sS'led me out'
p3469
F0.3333333333333333
sS'wonder. " but'
p3470
F1.0
sS'sometime , must'
p3471
F1.0
sS'that did not'
p3472
F1.0
sS'flat winglike projections'
p3473
F1.0
sS'can say --'
p3474
F1.0
sS'is a way'
p3475
F1.0
sS', rastin ,'
p3476
F0.3333333333333333
sS'the field like'
p3477
F0.125
sS"' he asked"
p3478
F0.16666666666666666
sS'i knew not.'
p3479
F0.25
sS'it was such'
p3480
F0.045454545454545456
sS', rastin ;'
p3481
F0.3333333333333333
sS', but nothing'
p3482
F0.07692307692307693
sS'a great window'
p3483
F0.14285714285714285
sS'with them. i'
p3484
F1.0
sS'and of many'
p3485
F0.3333333333333333
sS'it had a'
p3486
F0.25
sS'that the accused'
p3487
F0.125
sS'ends , a'
p3488
F1.0
sS'visible cause. they'
p3489
F1.0
sS'day of june'
p3490
F1.0
sS'in which fishes'
p3491
F0.5
sS'way. a woman'
p3492
F1.0
sS'was tense. "'
p3493
F1.0
sS"' muttered the"
p3494
F1.0
sS'leather seat. thicourt'
p3495
F1.0
sS'is passed upon'
p3496
F1.0
sS'halted their swift'
p3497
F1.0
sS'and weak i'
p3498
F1.0
sS'twice i heard'
p3499
F1.0
sS'i tell you'
p3500
F1.0
sS'sailing over the'
p3501
F1.0
sS'it was paris'
p3502
F0.045454545454545456
sS', of which'
p3503
F0.3333333333333333
sS'gray little houses'
p3504
F1.0
sS'and from part'
p3505
F1.0
sS'were square black'
p3506
F1.0
sS'lay about me'
p3507
F1.0
sS'point along the'
p3508
F1.0
sS'through all the'
p3509
F1.0
sS'and those pictures'
p3510
F1.0
sS'of your own'
p3511
F0.5
sS'of these things.'
p3512
F0.16666666666666666
sS'along the street'
p3513
F0.3333333333333333
sS'that they burned'
p3514
F0.14285714285714285
sS'paddle. a loud'
p3515
F1.0
sS'not in that'
p3516
F1.0
sS'and the sound'
p3517
F0.07142857142857142
sS'lothiere was seen'
p3518
F0.5
sS'began to address'
p3519
F0.14285714285714285
sS'de sitter that'
p3520
F0.5
sS'were mere chasms'
p3521
F1.0
sS'open field there'
p3522
F0.5
sS'center , and'
p3523
F1.0
sS'part of paris'
p3524
F0.3333333333333333
sS'swooping bird ,'
p3525
F1.0
sS'grinning. " i'
p3526
F1.0
sS'for wine ,'
p3527
F1.0
sS'glass so smooth'
p3528
F1.0
sS'glass bottle with'
p3529
F1.0
sS'and straight ,'
p3530
F1.0
sS'them so much'
p3531
F1.0
sS'been on the'
p3532
F1.0
sS'study them. i'
p3533
F1.0
sS'which many hundreds'
p3534
F1.0
sS'my eyes at'
p3535
F0.16666666666666666
sS"replied. 'they 'll"
p3536
F1.0
sS'titanic city ,'
p3537
F1.0
sS'waters around it'
p3538
F1.0
sS'him quickly for'
p3539
F1.0
sS'bent toward me'
p3540
F1.0
sS'know as much'
p3541
F1.0
sS'seemed speaking by'
p3542
F1.0
sS'and ears numbed'
p3543
F1.0
sS'but my eyes'
p3544
F1.0
sS'machines. they touched'
p3545
F1.0
sS'wheel on a'
p3546
F1.0
sS'of their speech'
p3547
F0.5
sS'came and that'
p3548
F1.0
sS'down , then'
p3549
F1.0
sS'" then another'
p3550
F0.5
sS'had followed and'
p3551
F1.0
sS'tell my people'
p3552
F1.0
sS'parchments that littered'
p3553
F1.0
sS'want to tell'
p3554
F0.25
sS"first. 'we can"
p3555
F1.0
sS'terrible as that'
p3556
F1.0
sS'smiled. thicourt pressed'
p3557
F1.0
sS'that only a'
p3558
F1.0
sS'were moving swiftly'
p3559
F0.5
sS'the secrets of'
p3560
F1.0
sS'" jean de'
p3561
F1.0
sS'in growing amazement.'
p3562
F1.0
sS'since even exorcists'
p3563
F1.0
sS'vanished. the fear-stricken'
p3564
F1.0
sS'very fast ,'
p3565
F0.5
sS', look from'
p3566
F1.0
sS'metal circle ,'
p3567
F0.5
sS'last ? "'
p3568
F1.0
sS', but mists'
p3569
F0.07692307692307693
sS'moment , a'
p3570
F0.5
sS'with hundreds inside'
p3571
F1.0
sS'so i have'
p3572
F0.5
sS'room were many'
p3573
F0.5
sS'circle from five'
p3574
F1.0
sS'great buildings of'
p3575
F0.5
sS'it was sailing'
p3576
F0.045454545454545456
sS'the winged cars.'
p3577
F1.0
sS'the wall at'
p3578
F1.0
sS'knowledge were gathered'
p3579
F1.0
sS", ' muttered"
p3580
F0.16666666666666666
sS'after me ,'
p3581
F1.0
sS"succeeded ! '"
p3582
F1.0
sS'and thicourt. they'
p3583
F1.0
sS"'there is a"
p3584
F1.0
sS"'ve brought someone"
p3585
F1.0
sS'to tell me'
p3586
F0.25
sS'field outside the'
p3587
F1.0
sS'turned to me.'
p3588
F0.5
sS'whirl so swiftly'
p3589
F1.0
sS'room with another'
p3590
F1.0
sS'to tell my'
p3591
F0.25
sS'he seemed speaking'
p3592
F0.5
sS'the examinations i'
p3593
F1.0
sS'suspected from this'
p3594
F1.0
sS'were fettered. ['
p3595
F1.0
sS'sound of voices'
p3596
F0.5
sS'was always my'
p3597
F1.0
sS'a thing unalterable'
p3598
F0.3333333333333333
sS'object and a'
p3599
F1.0
sS'subsided. i opened'
p3600
F1.0
sS'the parchment before'
p3601
F0.5
sS'of his ?'
p3602
F1.0
sS'hundreds of people'
p3603
F0.25
sS'of the evil'
p3604
F0.03125
sS'the vehicle and'
p3605
F1.0
sS', at intervals'
p3606
F0.5
sS'in the future'
p3607
F0.04
sS'to his face'
p3608
F1.0
sS'in doing so'
p3609
F1.0
sS'one seemed looking'
p3610
F1.0
sS'i studied that'
p3611
F1.0
sS'clang of the'
p3612
F0.5
sS', that reached'
p3613
F0.1111111111111111
sS'had descended by'
p3614
F1.0
sS'me. they were'
p3615
F1.0
sS'fourth measurement ,'
p3616
F1.0
sS"said. 'suppose we"
p3617
F1.0
sS'there were big'
p3618
F0.14285714285714285
sS'hours before. i'
p3619
F1.0
sS'three known measurements'
p3620
F1.0
sS'have stirred. "'
p3621
F1.0
sS'bring in the'
p3622
F1.0
sS'car rolled swiftly'
p3623
F1.0
sS'afraid to return'
p3624
F1.0
sS'lothiere , am'
p3625
F0.2
sS'thicourt , seemed'
p3626
F0.5
sS'enthralled. it was'
p3627
F1.0
sS'toward those who'
p3628
F1.0
sS'sounds quickly ceased'
p3629
F1.0
sS'i opened them.'
p3630
F0.5
sS'other and from'
p3631
F1.0
sS', henri ?'
p3632
F0.3333333333333333
sS'winged cars darting'
p3633
F1.0
sS'i found voice'
p3634
F1.0
sS'from his own'
p3635
F0.5
sS'great city. "'
p3636
F1.0
sS'were no knights'
p3637
F1.0
sS'the familiar field'
p3638
F0.5
sS"forty-four , '"
p3639
F1.0
sS'to desire to'
p3640
F1.0
sS'airships were sailing'
p3641
F1.0
sS'of humming came'
p3642
F1.0
sS'center of the'
p3643
F1.0
sS'shining glass things'
p3644
F1.0
sS'they burned henri'
p3645
F1.0
sS'cabinet there was'
p3646
F1.0
sS'wild thrilling excitement'
p3647
F1.0
sS'in the early'
p3648
F0.04
sS"you ? '"
p3649
F1.0
sS'into a maelstrom'
p3650
F0.5
sS'and still ,'
p3651
F0.5
sS', having no'
p3652
F1.0
sS'force to move'
p3653
F1.0
sS'" \'you will'
p3654
F0.3333333333333333
sS'higher and higher'
p3655
F1.0
sS'very slowly ,'
p3656
F1.0
sS'arm move as'
p3657
F1.0
sS'" a chorus'
p3658
F0.3333333333333333
sS'them were flying'
p3659
F1.0
sS'jean de marselait'
p3660
F1.0
sS'dispute broke out.'
p3661
F1.0
sS'my lord. and'
p3662
F1.0
sS'mists hid all'
p3663
F1.0
sS'was buffeted as'
p3664
F1.0
sS'a swooping bird'
p3665
F1.0
sS'lately have our'
p3666
F1.0
sS'i thought ,'
p3667
F0.3333333333333333
sS'tell me of'
p3668
F1.0
sS', yet ,'
p3669
F0.14285714285714285
sS'happened to be'
p3670
F0.5
sS'shone from its'
p3671
F1.0
sS'must come to'
p3672
F1.0
sS'see paris --'
p3673
F1.0
sS'then suddenly the'
p3674
F1.0
sS'to know ,'
p3675
F0.25
sS'bump. i looked'
p3676
F1.0
sS'" they were'
p3677
F0.125
sS'had vanished hours'
p3678
F1.0
sS'own time into'
p3679
F0.25
sS'wine. at that'
p3680
F1.0
sS'the parchment ,'
p3681
F0.5
sS'machines produced that'
p3682
F1.0
sS'the knowledge hidden'
p3683
F1.0
sS'like it ,'
p3684
F1.0
sS'i saw about'
p3685
F0.08333333333333333
sS'names of einstein'
p3686
F1.0
sS'them to each'
p3687
F0.5
sS'paris , called'
p3688
F0.3333333333333333
sS'? " the'
p3689
F0.5
sS'brought him to'
p3690
F0.5
sS'i told him.'
p3691
F0.3333333333333333
sS'be , i'
p3692
F0.5
sS'and we were'
p3693
F0.2
sS'too began to'
p3694
F1.0
sS'brilliant lights that'
p3695
F1.0
sS'be afraid to'
p3696
F1.0
sS'stared strangely at'
p3697
F1.0
sS'his hand and'
p3698
F1.0
sS'holding thousands of'
p3699
F1.0
sS'great cabins on'
p3700
F1.0
sS', must come'
p3701
F1.0
sS'their building but'
p3702
F0.5
sS'around the room'
p3703
F0.25
sS'lords , but'
p3704
F1.0
sS'-- what the'
p3705
F0.25
sS'forth the strange'
p3706
F1.0
sS'the other plump'
p3707
F0.14285714285714285
sS'do with time'
p3708
F1.0
sS'it proved to'
p3709
F1.0
sS'opened my eyes.'
p3710
F1.0
sS'and so had'
p3711
F1.0
sS'him and brought'
p3712
F0.3333333333333333
sS'around me. i'
p3713
F1.0
sS'that the writing'
p3714
F0.125
sS'pushing any one'
p3715
F1.0
sS'looked from one'
p3716
F1.0
sS'thunderclaps myself. i'
p3717
F1.0
sS'know and that'
p3718
F0.5
sS'waved his hand'
p3719
F1.0
sS'the floor was'
p3720
F0.5
sS'rush forward. faster'
p3721
F1.0
sS'if they should'
p3722
F0.5
sS'though i knew'
p3723
F0.5
sS'big white-walled room'
p3724
F1.0
sS'to me ,'
p3725
F0.16666666666666666
sS'i saw them'
p3726
F0.08333333333333333
sS'he said quietly'
p3727
F0.5
sS'news spreading ,'
p3728
F1.0
sS'on the ship'
p3729
F0.1111111111111111
sS'done before. the'
p3730
F1.0
sS'before me ,'
p3731
F0.5
sS'going through strange'
p3732
F1.0
sS'a moment before.'
p3733
F0.3333333333333333
sS'them , yet'
p3734
F0.2
sS'of stone ,'
p3735
F0.5
sS'the clang of'
p3736
F1.0
sS', without sails'
p3737
F1.0
sS'of great mountain-like'
p3738
F1.0
sS'the vehicle. there'
p3739
F1.0
sS'thunderclaps began to'
p3740
F1.0
sS'and fro in'
p3741
F0.14285714285714285
sS'buttons of the'
p3742
F1.0
sS'saying. " \'we'
p3743
F1.0
sS"'impossible ! i"
p3744
F1.0
sS'terrible speed that'
p3745
F1.0
sS'he reached toward'
p3746
F1.0
sS'and a humming'
p3747
F0.2
sS'each other and'
p3748
F0.5
sS'we went i'
p3749
F0.5
sS'one big man'
p3750
F1.0
sS'any man could'
p3751
F1.0
sS'that they put'
p3752
F0.14285714285714285
sS'and found it'
p3753
F1.0
sS'from before him'
p3754
F1.0
sS'the white-bearded one'
p3755
F0.3333333333333333
sS'the air like'
p3756
F0.16666666666666666
sS'as my neighbors.'
p3757
F1.0
sS'as strangely as'
p3758
F1.0
sS'forward , bumping'
p3759
F1.0
sS'hellish uproar ,'
p3760
F1.0
sS', saying that'
p3761
F1.0
sS'illustration : illustrated'
p3762
F1.0
sS', and blue'
p3763
F0.025
sS'to touch a'
p3764
F1.0
sS'strange vehicles or'
p3765
F0.5
sS'spite of the'
p3766
F0.5
sS'field there without'
p3767
F1.0
sS'one in which'
p3768
F1.0
sS'a simple apothecary'
p3769
F1.0
sS'they said it'
p3770
F0.25
sS'coming of darkness'
p3771
F1.0
sS'as though to'
p3772
F0.125
sS'an open field'
p3773
F1.0
sS'were smooth and'
p3774
F1.0
sS'that i am'
p3775
F0.1
sS'the ship cleared'
p3776
F0.25
sS'far beneath !'
p3777
F0.3333333333333333
sS'" \'i want'
p3778
F1.0
sS'secrets of the'
p3779
F1.0
sS'as i had'
p3780
F0.2
sS'the center of'
p3781
F1.0
sS'have faked this'
p3782
F1.0
sS'different language. i'
p3783
F1.0
sS'though , for'
p3784
F0.5
sS'claps of thunder'
p3785
F1.0
sS'the field very'
p3786
F0.125
sS'i wanted to'
p3787
F1.0
sS'it were gazing'
p3788
F0.3333333333333333
sS'singing , but'
p3789
F1.0
sS'touched a lever'
p3790
F1.0
sS'were tense and'
p3791
F1.0
sS'over me. they'
p3792
F0.5
sS'other earths like'
p3793
F1.0
sS'window. there was'
p3794
F1.0
sS'lothiere , did'
p3795
F0.2
sS'living pictures and'
p3796
F1.0
sS'some sort. black'
p3797
F1.0
sS'the land. each'
p3798
F1.0
sS'i feared !'
p3799
F1.0
sS'to do. "'
p3800
F1.0
sS'mail-clad soldiers who'
p3801
F1.0
sS'ever and anon'
p3802
F1.0
sS'do. " higher'
p3803
F0.5
sS'i did not'
p3804
F0.25
sS"' cried the"
p3805
F1.0
sS'different -- terrible'
p3806
F1.0
sS'of the car'
p3807
F0.03125
sS'night. he spoke'
p3808
F1.0
sS'learn only what'
p3809
F1.0
sS'visages of the'
p3810
F1.0
sS'on the floor'
p3811
F0.1111111111111111
sS", ' said"
p3812
F0.16666666666666666
sS'living light !'
p3813
F1.0
sS"'suppose we reverse"
p3814
F1.0
sS'" \'where are'
p3815
F1.0
sS'seemed of black'
p3816
F0.5
sS'still others below'
p3817
F1.0
sS'waters , and'
p3818
F1.0
sS'moment that i'
p3819
F1.0
sS'with matters forbidden.'
p3820
F1.0
sS'! climbing range'
p3821
F1.0
sS'and then from'
p3822
F0.1
sS'measurement , or'
p3823
F0.5
sS'birds. rastin tried'
p3824
F1.0
sS'god and the'
p3825
F1.0
sS'in that way'
p3826
F0.16666666666666666
sS'thicourt led me.'
p3827
F0.5
sS'it went ,'
p3828
F1.0
sS'had ever met'
p3829
F1.0
sS"me , 'where"
p3830
F0.1111111111111111
sS'before us. then'
p3831
F1.0
sS'" \'well ,'
p3832
F1.0
sS'einstein and de'
p3833
F1.0
sS'forward one of'
p3834
F1.0
sS'many machines. they'
p3835
F1.0
sS'say it was'
p3836
F1.0
sS'was heard and'
p3837
F1.0
sS'was what i'
p3838
F1.0
sS'others below them'
p3839
F1.0
sS'nor asked who'
p3840
F1.0
sS'on either side'
p3841
F0.5
sS'that , and'
p3842
F1.0
sS'i gazed astoundedly'
p3843
F1.0
sS'then he reached'
p3844
F0.5
sS'there thicourt stopped'
p3845
F1.0
sS'heard at the'
p3846
F1.0
sS'seemed passing beneath'
p3847
F1.0
sS'of those who'
p3848
F0.5
sS'heard the dead'
p3849
F0.3333333333333333
sS'cars. rastin told'
p3850
F1.0
sS', seemed of'
p3851
F0.3333333333333333
sS'battered visages of'
p3852
F1.0
sS'since such a'
p3853
F1.0
sS'and that blinked'
p3854
F0.1111111111111111
sS'advance in palliation'
p3855
F1.0
sS'did something quickly'
p3856
F1.0
sS'a point at'
p3857
F1.0
sS'is not. but'
p3858
F1.0
sS'an opening also.'
p3859
F0.5
sS'humming sound that'
p3860
F0.5
sS'time to his.'
p3861
F0.2
sS'weak i felt'
p3862
F1.0
sS'planets , moved'
p3863
F1.0
sS'before a great'
p3864
F1.0
sS'how the car'
p3865
F1.0
sS'want to return'
p3866
F0.25
sS', fearful ,'
p3867
F1.0
sS'in question. it'
p3868
F1.0
sS'of the sea'
p3869
F0.03125
sS'caused by the'
p3870
F0.5
sS'is it that'
p3871
F0.5
sS'finally. " \'how'
p3872
F1.0
sS'seal of my'
p3873
F1.0
sS'was white-bearded and'
p3874
F1.0
sS'to live beneath'
p3875
F1.0
sS'ships were coming'
p3876
F1.0
sS'selling what seemed'
p3877
F1.0
sS'you do with'
p3878
F1.0
sS'on which many'
p3879
F0.5
sS'fled when i'
p3880
F1.0
sS'jerked you out'
p3881
F1.0
sS'streets of the'
p3882
F1.0
sS'with the belt.'
p3883
F0.2
sS'they touched the'
p3884
F0.3333333333333333
sS"'but it is"
p3885
F1.0
sS'vast ship sailing'
p3886
F0.5
sS'sorcery. " the'
p3887
F1.0
sS'and i turned'
p3888
F0.1
sS'the pictures enthralled.'
p3889
F0.3333333333333333
sS'sky , the'
p3890
F0.5
sS'rounded black object'
p3891
F1.0
sS', dancing even'
p3892
F1.0
sS'to the prisoner.'
p3893
F0.058823529411764705
sS'wicked , that'
p3894
F1.0
sS'afraid. " many'
p3895
F1.0
sS'ship of size'
p3896
F1.0
sS'" rastin grasped'
p3897
F0.3333333333333333
sS'as they disputed'
p3898
F0.5
sS'of the city.'
p3899
F0.03125
sS'it was a'
p3900
F0.045454545454545456
sS'flat and open'
p3901
F1.0
sS'this , they'
p3902
F0.5
sS'hear voices from'
p3903
F1.0
sS'they were flying'
p3904
F0.09090909090909091
sS'me forward to'
p3905
F1.0
sS'and told me'
p3906
F1.0
sS'even exorcists could'
p3907
F1.0
sS'as much as'
p3908
F1.0
sS'he pointed to'
p3909
F1.0
sS'hinges from somewhere'
p3910
F1.0
sS'undrawn by horse'
p3911
F1.0
sS'him levers and'
p3912
F1.0
sS'along the long'
p3913
F0.3333333333333333
sS'describe what happened'
p3914
F0.5
sS'i cried out'
p3915
F1.0
sS'mechanisms that appalled'
p3916
F1.0
sS'pleaded , and'
p3917
F1.0
sS'swiftly forward ,'
p3918
F1.0
sS'of king and'
p3919
F1.0
sS'" it being'
p3920
F0.3333333333333333
sS'change the sentence'
p3921
F1.0
sS'the inquisitor. the'
p3922
F1.0
sS'up , seeing'
p3923
F1.0
sS'said rastin finally.'
p3924
F1.0
sS"! ' the"
p3925
F0.3333333333333333
sS'way to settle'
p3926
F1.0
sS"friend ? '"
p3927
F1.0
sS', their cause'
p3928
F1.0
sS'my mind was'
p3929
F1.0
sS'me. " one'
p3930
F0.3333333333333333
sS'watched , seemed'
p3931
F1.0
sS'never seen before.'
p3932
F1.0
sS'them ! "'
p3933
F1.0
sS'the table that'
p3934
F1.0
sS'great thing like'
p3935
F1.0
sS'fro selling what'
p3936
F1.0
sS'were many of'
p3937
F0.2
sS'all the world'
p3938
F0.2
sS', yet despite'
p3939
F0.14285714285714285
sS'heard issuing from'
p3940
F1.0
sS'on all sides.'
p3941
F1.0
sS'you can take'
p3942
F0.5
sS'and in the'
p3943
F0.25
sS'you found yourself'
p3944
F1.0
sS'discovered. " it'
p3945
F1.0
sS', and were'
p3946
F0.025
sS'to settle the'
p3947
F1.0
sS'and fro over'
p3948
F0.14285714285714285
sS'saw soon that'
p3949
F1.0
sS'parchment , and'
p3950
F0.5
sS'teaches all we'
p3951
F1.0
sS'a thing like'
p3952
F0.3333333333333333
sS'the stars. so'
p3953
F1.0
sS'them whose hands'
p3954
F1.0
sS'at the field'
p3955
F0.07692307692307693
sS'through at last'
p3956
F1.0
sS'head. " \'he'
p3957
F0.5
sS'who stood like'
p3958
F1.0
sS'that he held'
p3959
F0.3333333333333333
sS'marvels they had'
p3960
F1.0
sS'over the field'
p3961
F0.3333333333333333
sS'rushed to and'
p3962
F1.0
sS'any one of'
p3963
F1.0
sS'already far beneath'
p3964
F1.0
sS'myself. as we'
p3965
F1.0
sS'marselait , lifting'
p3966
F0.5
sS'and , as'
p3967
F0.5
sS'in the waters'
p3968
F0.04
sS'undreamed-of speed !'
p3969
F1.0
sS'but there was'
p3970
F1.0
sS'back , but'
p3971
F1.0
sS'from somewhere in'
p3972
F1.0
sS'than the one'
p3973
F1.0
sS'dreamed. " they'
p3974
F1.0
sS'shuddered when they'
p3975
F1.0
sS'the thunderclap. i'
p3976
F1.0
sS'the mechanisms in'
p3977
F0.5
sS'i am no'
p3978
F0.5
sS'street. " i'
p3979
F1.0
sS'like of which'
p3980
F1.0
sS'and that with'
p3981
F0.1111111111111111
sS'sound came from'
p3982
F1.0
sS'can do it'
p3983
F1.0
sS'so and the'
p3984
F1.0
sS'proved to them.'
p3985
F1.0
sS'along the three'
p3986
F0.3333333333333333
sS', it is'
p3987
F0.3333333333333333
sS'seemed of gentle'
p3988
F0.5
sS'i had never'
p3989
F0.05263157894736842
sS'and brought him'
p3990
F0.5
sS'all were watching'
p3991
F0.3333333333333333
sS'him ! they'
p3992
F0.5
sS'it is attested'
p3993
F0.2
sS'white parchment ,'
p3994
F1.0
sS'stone and great'
p3995
F1.0
sS'and the mystery'
p3996
F0.07142857142857142
sS'hundreds watched around'
p3997
F1.0
sS'opening rather than'
p3998
F1.0
sS'them we glimpsed'
p3999
F1.0
sS'they must work'
p4000
F0.5
sS'have our men'
p4001
F1.0
sS'smaller wheels connected'
p4002
F1.0
sS'led me. "'
p4003
F1.0
sS'there was nothing.'
p4004
F0.16666666666666666
sS'in a moment'
p4005
F0.14285714285714285
sS', and ,'
p4006
F0.025
sS'understand but my'
p4007
F0.5
sS'turning in some'
p4008
F1.0
sS'the same time'
p4009
F0.5
sS'to believe me'
p4010
F1.0
sS'all too wonderful'
p4011
F1.0
sS'at which he'
p4012
F1.0
sS'were at the'
p4013
F1.0
sS'of these crazy'
p4014
F0.16666666666666666
sS'understand. it seemed'
p4015
F1.0
sS'himself as one'
p4016
F1.0
sS'again turned on'
p4017
F1.0
sS'like rastin and'
p4018
F1.0
sS'on rows of'
p4019
F1.0
sS'moment and the'
p4020
F1.0
sS'gone for miles'
p4021
F0.5
sS'that had been'
p4022
F0.3333333333333333
sS'loose and straight-hanging'
p4023
F1.0
sS'asked me my'
p4024
F0.5
sS'had seen and'
p4025
F0.5
sS'many times folded'
p4026
F0.3333333333333333
sS'it was vast'
p4027
F0.045454545454545456
sS'before him ,'
p4028
F0.3333333333333333
sS'* " i'
p4029
F0.25
sS'how could such'
p4030
F1.0
sS'of sorcery. "'
p4031
F1.0
sS'whoever you be'
p4032
F1.0
sS'saw that ,'
p4033
F0.3333333333333333
sS'and smiled. thicourt'
p4034
F1.0
sS'did not listen.'
p4035
F0.16666666666666666
sS'me it was'
p4036
F1.0
sS'but nothing had'
p4037
F1.0
sS'box , singing.'
p4038
F0.5
sS'two were still'
p4039
F1.0
sS'had spent five'
p4040
F1.0
sS'and buttons ,'
p4041
F0.5
sS'him , he'
p4042
F1.0
sS'in spite of'
p4043
F1.0
sS'flying ! the'
p4044
F0.5
sS'of them wore'
p4045
F0.125
sS'laughed and explained'
p4046
F1.0
sS'first to last'
p4047
F0.5
sS', spend much'
p4048
F1.0
sS'them wore cloak'
p4049
F1.0
sS'that blinked and'
p4050
F1.0
sS'it were many'
p4051
F0.3333333333333333
sS'the chair. "'
p4052
F1.0
sS', henri lothiere'
p4053
F0.3333333333333333
sS'those who had'
p4054
F0.3333333333333333
sS'them. great numbers'
p4055
F1.0
sS'me. " it'
p4056
F0.3333333333333333
sS'causing them ,'
p4057
F1.0
sS'buildings that aspired'
p4058
F1.0
sS'to reappear as'
p4059
F1.0
sS'the three known'
p4060
F1.0
sS'the things that'
p4061
F1.0
sS'and anon great'
p4062
F1.0
sS'i went ,'
p4063
F0.3333333333333333
sS'that lifted loads'
p4064
F1.0
sS'before , upon'
p4065
F0.5
sS'from an open'
p4066
F1.0
sS'in the skies'
p4067
F0.04
sS'at that time'
p4068
F0.5
sS'or the changeless'
p4069
F1.0
sS'the said henri'
p4070
F1.0
sS'not understand these'
p4071
F0.3333333333333333
sS'question. it is'
p4072
F1.0
sS'smooth and clear'
p4073
F0.3333333333333333
sS'to move or'
p4074
F1.0
sS'the white-bearded one.'
p4075
F0.3333333333333333
sS'that someday ,'
p4076
F1.0
sS"hand. 'you are"
p4077
F1.0
sS'certain instruments. there'
p4078
F1.0
sS'hours before ,'
p4079
F1.0
sS'it circled smoothly'
p4080
F1.0
sS'i was buffeted'
p4081
F0.09090909090909091
sS'moved to and'
p4082
F1.0
sS'return to your'
p4083
F0.5
sS'measurement , to'
p4084
F0.5
sS'become gods or'
p4085
F1.0
sS'around the field'
p4086
F0.25
sS'of many simple'
p4087
F0.5
sS'references and phrases'
p4088
F1.0
sS"? ' shouted"
p4089
F0.14285714285714285
sS'or even a'
p4090
F1.0
sS'and the other'
p4091
F0.07142857142857142
sS'reverse. i told'
p4092
F1.0
sS'fishes are able'
p4093
F1.0
sS'exorcists could not'
p4094
F1.0
sS'brilliant light exceeding'
p4095
F1.0
sS'day ! we'
p4096
F1.0
sS'of the birds'
p4097
F0.03125
sS'a room as'
p4098
F0.5
sS'and seated me'
p4099
F1.0
sS'inquisitor extraordinary of'
p4100
F1.0
sS'magic ! "'
p4101
F1.0
sS'this is the'
p4102
F1.0
sS'pierced through them'
p4103
F1.0
sS', sirs ,'
p4104
F0.5
sS'upon a hard'
p4105
F1.0
sS'" then i'
p4106
F0.5
sS'seen to vanish'
p4107
F0.5
sS', sirs ?'
p4108
F0.5
sS'" mother of'
p4109
F1.0
sS'one brought forward'
p4110
F1.0
sS'by machines. "'
p4111
F1.0
sS'and at my'
p4112
F0.5
sS'heard him tell'
p4113
F1.0
sS'also. i thought'
p4114
F1.0
sS'without visible cause.'
p4115
F1.0
sS'repeated frequently by'
p4116
F1.0
sS'and covered with'
p4117
F1.0
sS'not believe --'
p4118
F0.3333333333333333
sS'-- what men'
p4119
F0.25
sS'stunning my ears'
p4120
F1.0
sS'pictures changed ,'
p4121
F1.0
sS'was in a'
p4122
F1.0
sS'incredible city of'
p4123
F1.0
sS'this year of'
p4124
F1.0
sS'well to relate'
p4125
F1.0
sS'whitebeard , rastin'
p4126
F1.0
sS'the ceiling. "'
p4127
F1.0
sS'dimension , just'
p4128
F1.0
sS'were quiet ,'
p4129
F1.0
sS'table that he'
p4130
F1.0
sS'how they must'
p4131
F1.0
sS'view in that'
p4132
F1.0
sS'looked round him'
p4133
F1.0
sS'much they said'
p4134
F1.0
sS'; we can'
p4135
F1.0
sS'came from it'
p4136
F0.25
sS'crude desk at'
p4137
F1.0
sS'and raised his'
p4138
F1.0
sS'the future_. "'
p4139
F1.0
sS'told me to'
p4140
F0.25
sS'and seemed falling'
p4141
F1.0
sS'men there and'
p4142
F1.0
sS'paris , "'
p4143
F0.3333333333333333
sS'which all in'
p4144
F1.0
sS'that men might'
p4145
F1.0
sS'big man was'
p4146
F1.0
sS'henri across five'
p4147
F1.0
sS"paris , '"
p4148
F0.3333333333333333
sS'or men of'
p4149
F1.0
sS'was speaking thousands'
p4150
F1.0
sS'his own master'
p4151
F0.5
sS'me , moved'
p4152
F0.1111111111111111
sS'yourself here ,'
p4153
F1.0
sS', and raised'
p4154
F0.025
sS'the buildings grew'
p4155
F0.5
sS', the knowledge'
p4156
F0.1111111111111111
sS'on range of'
p4157
F1.0
sS'with offending against'
p4158
F1.0
sS"' asked rastin."
p4159
F0.3333333333333333
sS'a man ,'
p4160
F0.3333333333333333
sS'mere measurement ,'
p4161
F1.0
sS'spreading , many'
p4162
F1.0
sS'one of them'
p4163
F0.3333333333333333
sS'the parchment. "'
p4164
F1.0
sS'least of this'
p4165
F1.0
sS'these vehicles were'
p4166
F1.0
sS"'we can do"
p4167
F1.0
sS'men were bending'
p4168
F1.0
sS'vehicles rolling out'
p4169
F1.0
sS'first your clothes'
p4170
F1.0
sS'the streets about'
p4171
F0.3333333333333333
sS'over the western'
p4172
F0.3333333333333333
sS'fancies. they will'
p4173
F1.0
sS'just as men'
p4174
F0.3333333333333333
sS'at a thick'
p4175
F0.5
sS'devil. ever and'
p4176
F1.0
sS', the sun'
p4177
F0.1111111111111111
sS'day. it was'
p4178
F1.0
sS'beneath it. they'
p4179
F0.5
sS'thousand four hundred'
p4180
F1.0
sS'seemed to steady.'
p4181
F0.25
sS'from us. i'
p4182
F1.0
sS'a wheel at'
p4183
F0.5
sS'felt dazed. the'
p4184
F1.0
sS'from which they'
p4185
F0.5
sS'the returning soldiers'
p4186
F1.0
sS'it , toward'
p4187
F0.14285714285714285
sS'entered it and'
p4188
F1.0
sS'woman was one'
p4189
F1.0
sS'simple things that'
p4190
F1.0
sS'of metal with'
p4191
F0.5
sS'turning all the'
p4192
F1.0
sS'! far beneath'
p4193
F1.0
sS'thing surely possible'
p4194
F1.0
sS'strangely as he'
p4195
F1.0
sS'cause. they were'
p4196
F1.0
sS'a small box'
p4197
F0.5
sS'" my brain'
p4198
F1.0
sS'prisoner , "'
p4199
F1.0
sS'with sheets of'
p4200
F1.0
sS'but a simple'
p4201
F1.0
sS'the dirt streets'
p4202
F1.0
sS', that many'
p4203
F0.1111111111111111
sS'distant square. "'
p4204
F1.0
sS'to know the'
p4205
F0.25
sS'mountain-like buildings that'
p4206
F1.0
sS'circled smoothly down'
p4207
F1.0
sS'all the machines'
p4208
F0.2
sS'seemed moving forward'
p4209
F1.0
sS'the picture we'
p4210
F1.0
sS'the air. then'
p4211
F0.3333333333333333
sS'numbed by what'
p4212
F1.0
sS'one of the'
p4213
F0.3333333333333333
sS', land appearing'
p4214
F1.0
sS'of stone and'
p4215
F0.5
sS'see nothing there'
p4216
F1.0
sS'marselait , inquisitor'
p4217
F0.5
sS'numbers of people'
p4218
F1.0
sS'our winged car'
p4219
F1.0
sS'winged car began'
p4220
F1.0
sS'so strong was'
p4221
F1.0
sS'a maze at'
p4222
F1.0
sS'attested that the'
p4223
F1.0
sS'the parchments that'
p4224
F0.5
sS'! " with'
p4225
F0.1
sS'! there were'
p4226
F1.0
sS'beside me ,'
p4227
F1.0
sS'if i yield'
p4228
F1.0
sS'broad stone street'
p4229
F1.0
sS'men i had'
p4230
F1.0
sS'the one nor'
p4231
F0.3333333333333333
sS'in the future.'
p4232
F0.04
sS'only what was'
p4233
F1.0
sS'much as my'
p4234
F0.3333333333333333
sS'" he half-whispered'
p4235
F0.125
sS'make the light'
p4236
F1.0
sS'buttons and the'
p4237
F1.0
sS'lettering. rastin said'
p4238
F1.0
sS'! how could'
p4239
F1.0
sS'at least ,'
p4240
F0.5
sS'quiet , watching'
p4241
F1.0
sS'their experiment that'
p4242
F1.0
sS'stated by many'
p4243
F1.0
sS'knew well that'
p4244
F1.0
sS'own fate ,'
p4245
F1.0
sS'on the spot'
p4246
F0.1111111111111111
sS'him and read'
p4247
F0.3333333333333333
sS'that rushed to'
p4248
F1.0
sS'spent five hundred'
p4249
F1.0
sS'to a great'
p4250
F0.5
sS'of this ,'
p4251
F0.5
sS'in their trials.'
p4252
F1.0
sS'he used many'
p4253
F1.0
sS'before to this'
p4254
F1.0
sS'the streets. their'
p4255
F1.0
sS'drew me in.'
p4256
F1.0
sS', it seemed'
p4257
F0.3333333333333333
sS'them. " the'
p4258
F0.2
sS'ears with its'
p4259
F1.0
sS'then from them'
p4260
F1.0
sS'on some. all'
p4261
F1.0
sS'they had been'
p4262
F0.14285714285714285
sS'tried it many'
p4263
F1.0
sS', incomprehensible references'
p4264
F1.0
sS'and i saw'
p4265
F0.1
sS'again their dispute'
p4266
F0.5
sS'desire to know'
p4267
F0.5
sS'have ye become'
p4268
F1.0
sS"i asked. 'for"
p4269
F0.5
sS'excitedly , but'
p4270
F1.0
sS'me to take'
p4271
F0.25
sS'a maelstrom ,'
p4272
F1.0
sS'there was ,'
p4273
F0.16666666666666666
sS'part and in'
p4274
F1.0
sS'writing was done'
p4275
F1.0
sS'later that they'
p4276
F1.0
sS'doubt. " the'
p4277
F1.0
sS'hat i had'
p4278
F1.0
sS'greatest of all'
p4279
F1.0
sS'excited negatives answered'
p4280
F1.0
sS'torch , and'
p4281
F1.0
sS'finishing journeys of'
p4282
F1.0
sS', that the'
p4283
F0.1111111111111111
sS'here to the'
p4284
F1.0
sS"that out. '"
p4285
F1.0
sS'end , and'
p4286
F1.0
sS'appeared in the'
p4287
F1.0
sS'upon its floor'
p4288
F1.0
sS'argument , gentlemen'
p4289
F1.0
sS'connected them to'
p4290
F1.0
sS'it. i did'
p4291
F1.0
sS'it speaking in'
p4292
F1.0
sS'would be a'
p4293
F1.0
sS'evidently caused by'
p4294
F1.0
sS'greater than earth'
p4295
F1.0
sS'there was a'
p4296
F0.16666666666666666
sS'the car rolled'
p4297
F0.25
sS'so terrible as'
p4298
F1.0
sS'entered after me'
p4299
F1.0
sS'" at last'
p4300
F1.0
sS'one who had'
p4301
F1.0
sS'to the window.'
p4302
F0.058823529411764705
sS'excited too. the'
p4303
F1.0
sS'with wonder and'
p4304
F1.0
sS'had planned. then'
p4305
F1.0
sS'involuntarily closed my'
p4306
F1.0
sS'he had me'
p4307
F0.2
sS'such a tale'
p4308
F0.25
sS'dreaming strength ,'
p4309
F1.0
sS'front of them'
p4310
F1.0
sS'see their experiment'
p4311
F1.0
sS'it many times'
p4312
F1.0
sS'to them. "'
p4313
F0.5
sS'on a post'
p4314
F0.5
sS'stood like steel'
p4315
F1.0
sS'of buildings stretching'
p4316
F1.0
sS'relate once ,'
p4317
F1.0
sS'shone with a'
p4318
F1.0
sS'came from near'
p4319
F0.25
sS'i have jerked'
p4320
F0.25
sS'no more power'
p4321
F1.0
sS'many people at'
p4322
F0.3333333333333333
sS'first in stupefaction'
p4323
F1.0
sS'he sat. his'
p4324
F1.0
sS'city of new'
p4325
F0.25
sS'be heard in'
p4326
F1.0
sS'by some ,'
p4327
F1.0
sS'on its lower'
p4328
F1.0
sS'and then lifted'
p4329
F0.1
sS'does not believe'
p4330
F1.0
sS'way , to'
p4331
F0.5
sS'who remained. my'
p4332
F1.0
sS'spend our lives'
p4333
F1.0
sS'before. i said'
p4334
F0.3333333333333333
sS'through the streets'
p4335
F0.16666666666666666
sS'and with it'
p4336
F0.3333333333333333
sS'his eyes ,'
p4337
F0.5
sS'from them like'
p4338
F0.5
sS'cannot well describe'
p4339
F1.0
sS'his opinion the'
p4340
F1.0
sS'out of that'
p4341
F0.2
sS'thicourt sat behind'
p4342
F1.0
sS'them before their'
p4343
F1.0
sS'works of the'
p4344
F1.0
sS'not understand but'
p4345
F0.3333333333333333
sS'lord , king'
p4346
F1.0
sS'of the familiar'
p4347
F0.03125
sS'his endless parchment'
p4348
F1.0
sS'and see if'
p4349
F1.0
sS'terrible warning snarls'
p4350
F1.0
sS'he brooded for'
p4351
F1.0
sS'around and over'
p4352
F0.5
sS'was causing them'
p4353
F0.5
sS'time of wonder.'
p4354
F0.3333333333333333
sS'floor , and'
p4355
F1.0
sS'climbing range on'
p4356
F1.0
sS'take a clerk'
p4357
F1.0
sS'might be discovered.'
p4358
F0.3333333333333333
sS'of the building'
p4359
F0.03125
sS'was my lord.'
p4360
F0.5
sS', seemingly tossing'
p4361
F1.0
sS'these hundreds to'
p4362
F1.0
sS'like no men'
p4363
F1.0
sS'of day !'
p4364
F1.0
sS'saw other vehicles'
p4365
F1.0
sS'it great ships'
p4366
F1.0
sS'! " winged'
p4367
F0.1
sS'levers changed their'
p4368
F1.0
sS'instead they wore'
p4369
F1.0
sS'beneath it. i'
p4370
F0.5
sS'fast that i'
p4371
F1.0
sS'stand up and'
p4372
F1.0
sS'the white-bearded man'
p4373
F0.3333333333333333
sS', and there'
p4374
F0.025
sS'thin white parchment'
p4375
F1.0
sS"told them. 'i"
p4376
F1.0
sS'of that place'
p4377
F0.5
sS'go to that'
p4378
F1.0
sS'before. the awful'
p4379
F1.0
sS'at that i'
p4380
F0.5
sS'of what i'
p4381
F0.5
sS'" they had'
p4382
F0.125
sS'very fast and'
p4383
F0.5
sS'had dreamed might'
p4384
F1.0
sS'words as to'
p4385
F1.0
sS'that vast ships'
p4386
F1.0
sS'draw back. "'
p4387
F1.0
sS'what century ?'
p4388
F1.0
sS'surface , and'
p4389
F1.0
sS'opening bolts and'
p4390
F1.0
sS'of black smoke'
p4391
F0.5
sS'me. " i'
p4392
F0.3333333333333333
sS'pictures showed what'
p4393
F1.0
sS'and rastin said'
p4394
F0.25
sS'lord one thousand'
p4395
F1.0
sS'these were starting'
p4396
F0.3333333333333333
sS'depths. then through'
p4397
F1.0
sS'on , between'
p4398
F0.5
sS'could not comprehend'
p4399
F0.14285714285714285
sS'around smaller wheels'
p4400
F1.0
sS'-- who can'
p4401
F1.0
sS'not darkness !'
p4402
F1.0
sS'were used. they'
p4403
F1.0
sS'of these things'
p4404
F0.16666666666666666
sS'or priests or'
p4405
F1.0
sS'you be ,'
p4406
F1.0
sS'and clear that'
p4407
F1.0
sS'know that in'
p4408
F0.5
sS'led me then'
p4409
F0.3333333333333333
sS'air. it was'
p4410
F1.0
sS'god , what'
p4411
F0.3333333333333333
sS'had found myself.'
p4412
F0.5
sS'touched these and'
p4413
F1.0
sS'swept upward at'
p4414
F1.0
sS'black metal ,'
p4415
F1.0
sS'me and what'
p4416
F0.3333333333333333
sS'ignorant of. some'
p4417
F1.0
sS'believe , hardly'
p4418
F0.5
sS'scientists , physicists'
p4419
F1.0
sS'wild fancies and'
p4420
F1.0
sS'truth in all'
p4421
F0.5
sS', in some'
p4422
F0.25
sS'leagues with hundreds'
p4423
F1.0
sS'in , and'
p4424
F1.0
sS'passed on ,'
p4425
F1.0
sS'not believe you'
p4426
F0.3333333333333333
sS"their heads. 'no"
p4427
F1.0
sS'seat. thicourt sat'
p4428
F1.0
sS'from this that'
p4429
F1.0
sS'as length or'
p4430
F1.0
sS'the great thunderclaps'
p4431
F0.25
sS"'where were you"
p4432
F1.0
sS'the lever again'
p4433
F1.0
sS'and the bottle'
p4434
F0.07142857142857142
sS'me , very'
p4435
F0.1111111111111111
sS'the outskirts of'
p4436
F1.0
sS'how , sirs'
p4437
F0.5
sS'prisoner for a'
p4438
F1.0
sS'afternoon , looked'
p4439
F1.0
sS'some , has'
p4440
F1.0
sS'its broad streets'
p4441
F1.0
sS', physicists --'
p4442
F1.0
sS'just as i'
p4443
F0.3333333333333333
sS'the front of'
p4444
F1.0
sS'matters unknown to'
p4445
F1.0
sS'which i had'
p4446
F0.25
sS'i was half-dazed'
p4447
F0.09090909090909091
sS'the building. then'
p4448
F1.0
sS'my desire to'
p4449
F1.0
sS'fro in the'
p4450
F1.0
sS'great statue ,'
p4451
F1.0
sS'and the pictures'
p4452
F0.07142857142857142
sS'very quickly by'
p4453
F1.0
sS'that they seemed'
p4454
F0.14285714285714285
sS'thicourt asked. "'
p4455
F1.0
sS'were gazing through'
p4456
F0.5
sS'chair. i felt'
p4457
F1.0
sS'with levers beside'
p4458
F1.0
sS'lothiere was himself'
p4459
F0.5
sS', in my'
p4460
F0.25
sS'from your own'
p4461
F1.0
sS'singing. i shuddered'
p4462
F1.0
sS'they touched buttons'
p4463
F0.3333333333333333
sS'from my own'
p4464
F1.0
sS'you , sire'
p4465
F0.25
sS', smooth and'
p4466
F1.0
sS'nanley by some'
p4467
F1.0
sS'show them before'
p4468
F1.0
sS'very closely. thicourt'
p4469
F1.0
sS'like steel statues'
p4470
F1.0
sS', torchlit room'
p4471
F1.0
sS'by my side'
p4472
F1.0
sS'falling sensation ceased'
p4473
F1.0
sS'be burned and'
p4474
F1.0
sS'told one at'
p4475
F1.0
sS'by fire. if'
p4476
F1.0
sS'as i closed'
p4477
F0.2
sS'sorcerer causing the'
p4478
F1.0
sS'were telling that'
p4479
F1.0
sS'from the sight'
p4480
F0.06666666666666667
sS"'s end ,"
p4481
F1.0
sS"he said. 'suppose"
p4482
F0.2
sS'head bent ,'
p4483
F1.0
sS'the love of'
p4484
F1.0
sS'wheel turned very'
p4485
F1.0
sS'i was on'
p4486
F0.09090909090909091
sS', that it'
p4487
F0.1111111111111111
sS'with a wheel'
p4488
F0.5
sS'at unthinkable speed.'
p4489
F1.0
sS'each man was'
p4490
F1.0
sS'thunderclap and the'
p4491
F0.5
sS'* it was'
p4492
F1.0
sS'city. " but'
p4493
F1.0
sS'to learn only'
p4494
F1.0
sS'opening and placed'
p4495
F1.0
sS', when we'
p4496
F0.5
sS'vast ship of'
p4497
F0.5
sS'four hundred and'
p4498
F1.0
sS'had been in'
p4499
F0.14285714285714285
sS'or pushing any'
p4500
F1.0
sS'we used to'
p4501
F1.0
sS'were many people'
p4502
F0.2
sS'with reverence that'
p4503
F1.0
sS'that the ship'
p4504
F0.125
sS'though themselves alive'
p4505
F1.0
sS'all the other'
p4506
F0.2
sS'of my neighbors'
p4507
F0.3333333333333333
sS'or ox ,'
p4508
F1.0
sS'with living light'
p4509
F0.5
sS'said that just'
p4510
F0.1
sS'that way ,'
p4511
F1.0
sS'such a one'
p4512
F0.25
sS'but others did'
p4513
F1.0
sS'heaven itself !'
p4514
F1.0
sS'! " rastin'
p4515
F0.1
sS'rotated from one'
p4516
F1.0
sS'the huge vessel'
p4517
F1.0
sS"simple apothecary 's"
p4518
F1.0
sS'in moments there'
p4519
F1.0
sS'many new words'
p4520
F1.0
sS'for the first'
p4521
F1.0
sS'descend. it circled'
p4522
F1.0
sS'the levers changed'
p4523
F0.5
sS'" and bending'
p4524
F1.0
sS'worlds. i saw'
p4525
F1.0
sS'half-dazed with wonder'
p4526
F1.0
sS'hundred years before'
p4527
F0.5
sS'starting or finishing'
p4528
F1.0
sS'hundred years in'
p4529
F0.5
sS'have it proved'
p4530
F1.0
sS'god , how'
p4531
F0.3333333333333333
sS'a way to'
p4532
F0.5
sS'side. they rolled'
p4533
F1.0
sS'settle the argument'
p4534
F1.0
sS', they went'
p4535
F0.25
sS', by diabolical'
p4536
F1.0
sS'future. this is'
p4537
F1.0
sS'" strange ,'
p4538
F1.0
sS'things. i know'
p4539
F0.5
sS'that aspired up'
p4540
F1.0
sS"'we have succeeded"
p4541
F1.0
sS"'s head bent"
p4542
F1.0
sS'knowledge. \' "'
p4543
F1.0
sS'" * *'
p4544
F1.0
sS'could such things'
p4545
F1.0
sS'panic for an'
p4546
F1.0
sS'before him and'
p4547
F0.3333333333333333
sS'sensation ceased in'
p4548
F1.0
sS'that place. but'
p4549
F1.0
sS'year is this'
p4550
F1.0
sS'time , and'
p4551
F0.25
sS'what seemed sheets'
p4552
F1.0
sS'either side of'
p4553
F0.5
sS'or two of'
p4554
F1.0
sS'edge before us'
p4555
F1.0
sS'than any man'
p4556
F0.5
sS'to get someone'
p4557
F0.5
sS'the thunderclaps that'
p4558
F0.25
sS', to go'
p4559
F0.125
sS'speaking by my'
p4560
F1.0
sS'but the air'
p4561
F1.0
sS'i watched ,'
p4562
F0.5
sS'that day. upon'
p4563
F0.5
sS'i saw that'
p4564
F0.08333333333333333
sS', repeated frequently'
p4565
F1.0
sS'fro at undreamed-of'
p4566
F1.0
sS'terrific depths. then'
p4567
F1.0
sS'those who walked'
p4568
F0.3333333333333333
sS'great suns like'
p4569
F1.0
sS'spite of this'
p4570
F0.5
sS'frequently by these'
p4571
F1.0
sS'too , as'
p4572
F0.5
sS'they seemed disputing'
p4573
F0.5
sS'tubes at the'
p4574
F1.0
sS'\' " rastin'
p4575
F0.08333333333333333
sS"the room. 'those"
p4576
F0.5
sS'to me to'
p4577
F0.16666666666666666
sS'an apple ,'
p4578
F1.0
sS'my right to'
p4579
F1.0
sS'the sea ,'
p4580
F0.5
sS'black object of'
p4581
F1.0
sS'love of god'
p4582
F1.0
sS'king of france'
p4583
F1.0
sS'desk at which'
p4584
F1.0
sS'and the reverse.'
p4585
F0.07142857142857142
sS'and thicourt beside'
p4586
F0.16666666666666666
sS'showed me a'
p4587
F0.5
sS'it that you'
p4588
F0.5
sS'were windows in'
p4589
F1.0
sS'that wild tale'
p4590
F1.0
sS'buildings of many'
p4591
F1.0
sS'telling that their'
p4592
F1.0
sS'and that it'
p4593
F0.1111111111111111
sS'upon that morning'
p4594
F0.5
sS'they were at'
p4595
F0.09090909090909091
sS'and fro also'
p4596
F0.14285714285714285
sS'and that if'
p4597
F0.1111111111111111
sS'yet somehow i'
p4598
F1.0
sS'from the parchment.'
p4599
F0.06666666666666667
sS'power of the'
p4600
F1.0
sS'yet despite that'
p4601
F1.0
sS'? * *'
p4602
F1.0
sS'! " the'
p4603
F0.1
sS'first i had'
p4604
F1.0
sS'was there any'
p4605
F1.0
sS'diabolical power ,'
p4606
F1.0
sS'watched and on'
p4607
F1.0
sS'kept going to'
p4608
F1.0
sS'told them of'
p4609
F1.0
sS'on it a'
p4610
F0.25
sS'minutes to them'
p4611
F1.0
sS'another lever. all'
p4612
F1.0
sS'-- would that'
p4613
F1.0
sS'from the parchments'
p4614
F0.06666666666666667
sS'we curved around'
p4615
F1.0
sS', was greatest'
p4616
F0.3333333333333333
sS'i cannot well'
p4617
F0.5
sS'of thunder have'
p4618
F0.5
sS'were gathered there'
p4619
F1.0
sS'" there were'
p4620
F0.5
sS'came to a'
p4621
F1.0
sS'same. " small'
p4622
F1.0
sS'all of the'
p4623
F1.0
sS'ship , a'
p4624
F0.5
sS'scarce understand. "'
p4625
F1.0
sS'the open fields'
p4626
F1.0
sS'future. " there'
p4627
F1.0
sS'0000. \' "'
p4628
F1.0
sS'me that the'
p4629
F0.3333333333333333
sS'poured molten metal'
p4630
F1.0
sS'was half-dazed with'
p4631
F1.0
sS'held to his'
p4632
F1.0
sS'sight of those'
p4633
F1.0
sS"'in a field"
p4634
F1.0
sS'were lord ,'
p4635
F1.0
sS'this was wicked'
p4636
F1.0
sS'though by awful'
p4637
F1.0
sS'absurd speculations. "'
p4638
F1.0
sS'visions _of the'
p4639
F1.0
sS'at a distance.'
p4640
F0.5
sS'him tell them'
p4641
F0.5
sS'bottle shone with'
p4642
F1.0
sS"seeking knowledge. '"
p4643
F1.0
sS'a distance. i'
p4644
F1.0
sS"be. 'but what"
p4645
F1.0
sS'our sun ,'
p4646
F0.5
sS'caught a word'
p4647
F1.0
sS'parchment , many'
p4648
F0.5
sS'that future time'
p4649
F1.0
sS'carven from one'
p4650
F1.0
sS'excited , it'
p4651
F1.0
sS'york , but'
p4652
F1.0
sS'then the clang'
p4653
F0.3333333333333333
sS'straight figure ,'
p4654
F1.0
sS'the future. glad'
p4655
F0.3333333333333333
sS'seemed the city.'
p4656
F1.0
sS'through them and'
p4657
F0.5
sS'i wonder ,'
p4658
F1.0
sS'rose on either'
p4659
F1.0
sS'carried many people'
p4660
F1.0
sS'were worth life'
p4661
F1.0
sS'the prisoner spoke'
p4662
F0.3333333333333333
sS'from him !'
p4663
F0.5
sS'the blasphemies mentioned'
p4664
F1.0
sS'cloak and hat'
p4665
F1.0
sS'thickness. they mentioned'
p4666
F1.0
sS'inquisitor of the'
p4667
F1.0
sS'beneath the waters'
p4668
F1.0
sS'to these wild'
p4669
F1.0
sS'and they saw'
p4670
F0.16666666666666666
sS'amazement. for i'
p4671
F1.0
sS'" it is'
p4672
F0.3333333333333333
sS'the city. *'
p4673
F0.5
sS'believe yourself in'
p4674
F1.0
sS'stars. so when'
p4675
F1.0
sS'of science found'
p4676
F1.0
sS"met rastin 's"
p4677
F1.0
sS'took an instrument'
p4678
F1.0
sS'though birds. rastin'
p4679
F1.0
sS'seats. i thought'
p4680
F1.0
sS'out over the'
p4681
F1.0
sS'tell them how'
p4682
F0.3333333333333333
sS'and placed a'
p4683
F1.0
sS'the sea and'
p4684
F0.5
sS'and rastin shook'
p4685
F0.25
sS'the two raised'
p4686
F0.25
sS'they seized him'
p4687
F1.0
sS'against god and'
p4688
F1.0
sS', that earth'
p4689
F0.1111111111111111
sS'i opened my'
p4690
F0.5
sS'glass tubes fixed'
p4691
F0.5
sS'inside and in'
p4692
F1.0
sS'" you may'
p4693
F1.0
sS'caused by a'
p4694
F0.5
sS'sails or oars'
p4695
F1.0
sS'its turning ceased.'
p4696
F1.0
sS'of flight of'
p4697
F1.0
sS'ocean , yet'
p4698
F1.0
sS'great window into'
p4699
F1.0
sS'there before me'
p4700
F1.0
sS'again the names'
p4701
F1.0
sS'one point in'
p4702
F0.5
sS'spoke for the'
p4703
F1.0
sS'still , at'
p4704
F1.0
sS'who walked stepped'
p4705
F1.0
sS', though ,'
p4706
F0.3333333333333333
sS', and started'
p4707
F0.025
sS'flew , but'
p4708
F1.0
sS'the machines with'
p4709
F0.5
sS'things that someday'
p4710
F0.16666666666666666
sS', for it'
p4711
F0.3333333333333333
sS'so i began'
p4712
F0.5
sS'not stop. others'
p4713
F1.0
sS', henri ,'
p4714
F0.3333333333333333
sS'i appeared in'
p4715
F1.0
sS'he had vanished.'
p4716
F0.2
sS'is charged in'
p4717
F1.0
sS'back to the'
p4718
F1.0
sS'building but rastin'
p4719
F1.0
sS'car flew ,'
p4720
F1.0
sS'to be stone'
p4721
F0.16666666666666666
sS'rastin , turned'
p4722
F0.2
sS'seemed on that'
p4723
F1.0
sS'of theirs. "'
p4724
F1.0
sS", apothecary 's"
p4725
F1.0
sS'of. some appeared'
p4726
F1.0
sS'had crossed. i'
p4727
F1.0
sS'things. " they'
p4728
F1.0
sS'of knowledge like'
p4729
F0.2
sS', or what'
p4730
F0.3333333333333333
sS'then seemed to'
p4731
F1.0
sS'they saw how'
p4732
F0.3333333333333333
sS'dead speak thus'
p4733
F1.0
sS'of course ,'
p4734
F1.0
sS'the air passed'
p4735
F0.16666666666666666
sS'theirs. they said'
p4736
F1.0
sS'going to the'
p4737
F1.0
sS'year 0000. you'
p4738
F0.5
sS'told me not'
p4739
F0.25
sS'look on !'
p4740
F1.0
sS'tried to explain'
p4741
F1.0
sS'that thicourt and'
p4742
F1.0
sS'but finally the'
p4743
F1.0
sS'other men of'
p4744
F1.0
sS'hose , and'
p4745
F1.0
sS'doing so i'
p4746
F1.0
sS"plump-faced one. 'what"
p4747
F1.0
sS'many rods in'
p4748
F1.0
sS'wall at one'
p4749
F1.0
sS'fashion. many ,'
p4750
F1.0
sS'well that this'
p4751
F1.0
sS'in the glass'
p4752
F0.04
sS'i told them'
p4753
F0.3333333333333333
sS'side by side'
p4754
F1.0
sS'pry into its'
p4755
F1.0
sS'on their force'
p4756
F1.0
sS'not of diabolical'
p4757
F1.0
sS'was saying ,'
p4758
F1.0
sS'me at a'
p4759
F1.0
sS'me to get'
p4760
F0.25
sS'appeared to believe'
p4761
F1.0
sS'sought to know'
p4762
F1.0
sS'he held to'
p4763
F1.0
sS'the mystery of'
p4764
F1.0
sS'" \'in a'
p4765
F1.0
sS'me down to'
p4766
F1.0
sS'the same moment'
p4767
F0.5
sS', my eyes'
p4768
F0.5
sS'the known diabolical'
p4769
F1.0
sS'a proof to'
p4770
F1.0
sS'that field from'
p4771
F1.0
sS'the belt. it'
p4772
F1.0
sS'others had glass'
p4773
F1.0
sS'fast and then'
p4774
F1.0
sS'inside them. "'
p4775
F1.0
sS', stunning my'
p4776
F1.0
sS'some of them'
p4777
F1.0
sS'my eyes !'
p4778
F0.16666666666666666
sS'the waters around'
p4779
F0.5
sS'parchment before him'
p4780
F1.0
sS'all things. i'
p4781
F1.0
sS'things. i wanted'
p4782
F0.5
sS'that covered my'
p4783
F1.0
sS'had gone for'
p4784
F1.0
sS', to study'
p4785
F0.125
sS'a dagger. there'
p4786
F1.0
sS'land from the'
p4787
F1.0
sS'tongue i knew'
p4788
F1.0
sS'" but tush'
p4789
F0.3333333333333333
sS'and into the'
p4790
F1.0
sS'knowledge like rastin'
p4791
F1.0
sS'to understand. you'
p4792
F1.0
sS'and higher we'
p4793
F1.0
sS'could not understand'
p4794
F0.14285714285714285
sS'seemed sheets of'
p4795
F1.0
sS'and were heard'
p4796
F0.3333333333333333
sS'they showed men'
p4797
F0.5
sS'having no more'
p4798
F1.0
sS'at the end.'
p4799
F0.07692307692307693
sS'the third day'
p4800
F1.0
sS'of france ,'
p4801
F1.0
sS'in the ground'
p4802
F0.04
sS'to see paris'
p4803
F0.3333333333333333
sS'eager to learn'
p4804
F1.0
sS'that they used'
p4805
F0.14285714285714285
sS'that appalled me.'
p4806
F1.0
sS'seemed looking through'
p4807
F1.0
sS'said that i'
p4808
F0.1
sS'dug in the'
p4809
F1.0
sS'not time a'
p4810
F1.0
sS'another , if'
p4811
F0.3333333333333333
sS'through terrific depths.'
p4812
F1.0
sS'he had before'
p4813
F0.2
sS'terrible burst of'
p4814
F1.0
sS'hum of the'
p4815
F1.0
sS'what a city'
p4816
F0.5
sS'of darkness ,'
p4817
F1.0
sS'sound. and at'
p4818
F1.0
sS'levels rose on'
p4819
F1.0
sS'but they laughed'
p4820
F0.3333333333333333
sS'yet they were'
p4821
F0.3333333333333333
sS'that shone from'
p4822
F1.0
sS'rolling out of'
p4823
F1.0
sS'believe that thicourt'
p4824
F1.0
sS'sorcery thus halted.'
p4825
F1.0
sS"' the other"
p4826
F0.5
sS'in the air.'
p4827
F0.04
sS'both shook their'
p4828
F1.0
sS', i ,'
p4829
F0.08333333333333333
sS'at all ,'
p4830
F1.0
sS'! the familiar'
p4831
F0.3333333333333333
sS'thicourt led me'
p4832
F0.5
sS'day do. "'
p4833
F1.0
sS'" \'you would'
p4834
F0.3333333333333333
sS'and we sat'
p4835
F0.2
sS'get in ,'
p4836
F1.0
sS'in drab tunic'
p4837
F1.0
sS'was indeed a'
p4838
F1.0
sS'rastin turned to'
p4839
F1.0
sS"excitedly. 'we 've"
p4840
F1.0
sS'into theirs. they'
p4841
F1.0
sS'sound of humming'
p4842
F0.5
sS'rastin entered after'
p4843
F1.0
sS'de marselait laid'
p4844
F0.3333333333333333
sS'and to you'
p4845
F0.2
sS'of madness !'
p4846
F1.0
sS'way very quickly'
p4847
F1.0
sS'people , dressed'
p4848
F0.5
sS'moment. this fact'
p4849
F1.0
sS"' thicourt said"
p4850
F0.5
sS'into the future'
p4851
F0.16666666666666666
sS'parchments from before'
p4852
F1.0
sS'voices from it'
p4853
F1.0
sS'rolled back into'
p4854
F1.0
sS'was a sound'
p4855
F0.2
sS'up as though'
p4856
F1.0
sS'\' " \'and'
p4857
F0.08333333333333333
sS', sire. "'
p4858
F0.5
sS'a brilliant light'
p4859
F1.0
sS'" he mused.'
p4860
F0.125
sS'loadstones , to'
p4861
F1.0
sS'no animal pulling'
p4862
F1.0
sS', he went'
p4863
F0.3333333333333333
sS'stars were great'
p4864
F1.0
sS'to a point'
p4865
F0.5
sS'nature , from'
p4866
F1.0
sS'was flying in'
p4867
F1.0
sS'that there were'
p4868
F1.0
sS'his work.'
p4869
F1.0
sS'them of the'
p4870
F0.3333333333333333
sS'door , and'
p4871
F1.0
sS'said that to'
p4872
F0.1
sS'us. we passed'
p4873
F1.0
sS'my ears with'
p4874
F1.0
sS'if they were'
p4875
F0.5
sS'that from first'
p4876
F0.5
sS', nor asked'
p4877
F1.0
sS'" the prisoner'
p4878
F0.2
sS'year fourteen hundred'
p4879
F1.0
sS'years before. could'
p4880
F1.0
sS'me wine. at'
p4881
F1.0
sS'him and two'
p4882
F0.3333333333333333
sS'streets to their'
p4883
F1.0
sS'from five hundred'
p4884
F1.0
sS'he seemed explaining'
p4885
F0.5
sS'only the servants'
p4886
F1.0
sS'many to utter'
p4887
F1.0
sS'i looked down'
p4888
F0.2
sS'halted. " therefore'
p4889
F1.0
sS"? ' thicourt"
p4890
F0.14285714285714285
sS'one thousand four'
p4891
F1.0
sS'of excited talk'
p4892
F0.5
sS'-- and yet'
p4893
F1.0
sS'understand the drift'
p4894
F1.0
sS'the machines around'
p4895
F0.5
sS'not , in'
p4896
F0.5
sS', but they'
p4897
F0.07692307692307693
sS'touched buttons on'
p4898
F1.0
sS', then shuddered.'
p4899
F0.5
sS'a fashion. many'
p4900
F1.0
sS'wish well to'
p4901
F1.0
sS'for an instant'
p4902
F1.0
sS'way in which'
p4903
F1.0
sS'brain was whirling.'
p4904
F1.0
sS'it seemed ,'
p4905
F0.3333333333333333
sS'bird , and'
p4906
F1.0
sS'myself , yet'
p4907
F1.0
sS'following me at'
p4908
F1.0
sS"answer. 'surely ,"
p4909
F1.0
sS'people -- people'
p4910
F0.5
sS'around the room.'
p4911
F0.25
sS'proof to all'
p4912
F1.0
sS'say -- what'
p4913
F1.0
sS'appearing from the'
p4914
F1.0
sS'went , yet'
p4915
F0.5
sS'when i appeared'
p4916
F1.0
sS'instant in his'
p4917
F1.0
sS'lifted loads that'
p4918
F1.0
sS"'stand on the"
p4919
F1.0
sS'" henri lothiere'
p4920
F1.0
sS'windows in the'
p4921
F1.0
sS'lying upon its'
p4922
F1.0
sS'in that room'
p4923
F0.16666666666666666
sS'them. " it'
p4924
F0.2
sS'voice came from'
p4925
F1.0
sS'and i could'
p4926
F0.1
sS'i saw now'
p4927
F0.08333333333333333
sS'set it turning'
p4928
F1.0
sS'i lived ,'
p4929
F1.0
sS'though carven from'
p4930
F1.0
sS'thunderclap. i went'
p4931
F1.0
sS'sick and weak'
p4932
F1.0
sS'never believe it'
p4933
F1.0
sS'afternoon by then'
p4934
F1.0
sS'much as a'
p4935
F0.3333333333333333
sS'come to be'
p4936
F1.0
sS'yourself in your'
p4937
F1.0
sS"'well , look"
p4938
F0.5
sS'dressed in drab'
p4939
F0.5
sS'coming as man'
p4940
F1.0
sS'streets and also'
p4941
F0.3333333333333333
sS"'but what can"
p4942
F1.0
sS'fro , all'
p4943
F1.0
sS'with other earths'
p4944
F1.0
sS'a sorcerer of'
p4945
F0.16666666666666666
sS'the ground at'
p4946
F0.25
sS'shook himself as'
p4947
F1.0
sS'and i wanted'
p4948
F0.1
sS'told him. "'
p4949
F1.0
sS'of face. neither'
p4950
F1.0
sS'the evil one'
p4951
F1.0
sS"thicourt 's arm"
p4952
F1.0
sS'eyes saw marvels'
p4953
F1.0
sS'have told one'
p4954
F0.5
sS'" yet do'
p4955
F1.0
sS', saw that'
p4956
F1.0
sS'nodded weakly. my'
p4957
F1.0
sS'bending over me.'
p4958
F1.0
sS'long and straight'
p4959
F1.0
sS'not understand ,'
p4960
F0.3333333333333333
sS', it had'
p4961
F0.3333333333333333
sS'paris -- the'
p4962
F1.0
sS'not have stirred.'
p4963
F1.0
sS'came terrible warning'
p4964
F1.0
sS'on ceiling and'
p4965
F1.0
sS'said. " \'we'
p4966
F0.2
sS'he said. then'
p4967
F0.2
sS'morey ] he'
p4968
F1.0
sS'heard the great'
p4969
F0.3333333333333333
sS'and to have'
p4970
F0.2
sS'the woman was'
p4971
F1.0
sS'on a soft'
p4972
F0.5
sS'the like of'
p4973
F1.0
sS'opened them. i'
p4974
F1.0
sS'ever toward that'
p4975
F1.0
sS'earliest youth ,'
p4976
F1.0
sS'light coat that'
p4977
F1.0
sS'they were men'
p4978
F0.09090909090909091
sS'or finishing journeys'
p4979
F1.0
sS'ship , to'
p4980
F0.5
sS'and we on'
p4981
F0.2
sS'the changeless mask'
p4982
F1.0
sS'saw there ?'
p4983
F1.0
sS'louder. then he'
p4984
F1.0
sS'the air. it'
p4985
F0.3333333333333333
sS'the man at'
p4986
F0.5
sS'strange , but'
p4987
F0.5
sS'! the men'
p4988
F0.3333333333333333
sS'" a sorcerer'
p4989
F0.3333333333333333
sS'it was on'
p4990
F0.045454545454545456
sS'blasphemies before they'
p4991
F1.0
sS'thunderclaps sounded. "'
p4992
F1.0
sS'seats beside me'
p4993
F1.0
sS'full of things'
p4994
F1.0
sS'ground , and'
p4995
F0.5
sS'that the woman'
p4996
F0.125
sS'ever tell such'
p4997
F1.0
sS'prisoner spoke for'
p4998
F1.0
sS'being suspected from'
p4999
F1.0
sS'has been troubled'
p5000
F1.0
sS'thing , spend'
p5001
F1.0
sS'the names of'
p5002
F1.0
sS', what happened'
p5003
F0.5
sS'a city ,'
p5004
F0.5
sS'what i saw'
p5005
F0.25
sS"'but how ,"
p5006
F1.0
sS'\' " they'
p5007
F0.08333333333333333
sS'i was not'
p5008
F0.09090909090909091
sS'another thunderclap was'
p5009
F0.5
sS'own time ,'
p5010
F0.25
sS'changed , showed'
p5011
F1.0
sS'me not to'
p5012
F1.0
sS'it , yet'
p5013
F0.14285714285714285
sS'pictures were moving'
p5014
F1.0
sS'chair. " \'you'
p5015
F1.0
sS'a clang of'
p5016
F1.0
sS"rastin 's eyes"
p5017
F1.0
sS', and this'
p5018
F0.025
sS'the plump-faced one.'
p5019
F1.0
sS'what a sight'
p5020
F0.5
sS'with his pen'
p5021
F0.5
sS'across the uncrossed'
p5022
F0.5
sS'palliation of your'
p5023
F1.0
sS'in seats with'
p5024
F0.5
sS'" but in'
p5025
F0.3333333333333333
sS'sire. " jean'
p5026
F1.0
sS'and who spend'
p5027
F1.0
sS'could understand but'
p5028
F0.5
sS'rastin grasped my'
p5029
F1.0
sS'to get in'
p5030
F0.5
sS'cars darting to'
p5031
F1.0
sS'it instead of'
p5032
F1.0
sS'seen before. "'
p5033
F1.0
sS', so that'
p5034
F0.5
sS'that the men'
p5035
F0.125
sS'he continued. *'
p5036
F1.0
sS'voice low but'
p5037
F1.0
sS'scientists or men'
p5038
F1.0
sS'and i have'
p5039
F0.1
sS'vehicle and then'
p5040
F1.0
sS'you from your'
p5041
F0.5
sS'end. a belt'
p5042
F1.0
sS'" they went'
p5043
F0.125
sS'not to fear.'
p5044
F1.0
sS'was lying. "'
p5045
F1.0
sS'lever again ,'
p5046
F1.0
sS'how dazed i'
p5047
F1.0
sS'man can know'
p5048
F1.0
sS'my eyes to'
p5049
F0.16666666666666666
sS'thus halted. "'
p5050
F1.0
sS'and darkness had'
p5051
F1.0
sS'leagues in the'
p5052
F1.0
sS'now , henri'
p5053
F0.25
sS'a hard surface'
p5054
F1.0
sS'that many times'
p5055
F0.5
sS'one to the'
p5056
F0.5
sS'i saw around'
p5057
F0.08333333333333333
sS'men who answered'
p5058
F0.5
sS'i know that'
p5059
F1.0
sS'the changing of'
p5060
F1.0
sS'seen from the'
p5061
F1.0
sS'i had ever'
p5062
F0.05263157894736842
sS'from one point'
p5063
F0.25
sS", ' i"
p5064
F0.16666666666666666
sS'can take me'
p5065
F1.0
sS'of einstein and'
p5066
F1.0
sS'that drew me'
p5067
F1.0
sS'-- millions on'
p5068
F1.0
sS'downward through terrific'
p5069
F1.0
sS'into the instrument'
p5070
F0.16666666666666666
sS'from it and'
p5071
F0.25
sS'out on me'
p5072
F1.0
sS'gave me wine.'
p5073
F1.0
sS'the other men'
p5074
F0.14285714285714285
sS'me first to'
p5075
F1.0
sS'the streets and'
p5076
F0.3333333333333333
sS'tubes on some.'
p5077
F1.0
sS'took heart ,'
p5078
F1.0
sS'and some fled'
p5079
F1.0
sS'have turned it'
p5080
F1.0
sS'streets. their glare'
p5081
F1.0
sS'yet when they'
p5082
F1.0
sS'things in the'
p5083
F1.0
sS'from the one'
p5084
F0.06666666666666667
sS'field like a'
p5085
F1.0
sS'their swift rush'
p5086
F1.0
sS'felt myself bumping'
p5087
F0.5
sS'all we need'
p5088
F1.0
sS'as men use'
p5089
F1.0
sS'little houses ,'
p5090
F1.0
sS'time like no'
p5091
F1.0
sS'a moment ,'
p5092
F0.3333333333333333
sS'that a wild'
p5093
F1.0
sS'me also a'
p5094
F1.0
sS'engaged in sorcery.'
p5095
F1.0
sS'and we entered'
p5096
F0.2
sS', i wondered.'
p5097
F0.08333333333333333
sS"one. 'what year"
p5098
F0.5
sS'moved around it'
p5099
F1.0
sS'! \' "'
p5100
F0.3333333333333333
sS'me here to'
p5101
F1.0
sS'me , and'
p5102
F0.1111111111111111
sS"day be. 'but"
p5103
F1.0
sS'year of our'
p5104
F1.0
sS'buildings at the'
p5105
F1.0
sS'the titanic city'
p5106
F1.0
sS'but rastin and'
p5107
F1.0
sS"time ? '"
p5108
F1.0
sS'ceased to bump.'
p5109
F1.0
sS'used to make'
p5110
F0.5
sS'what men might'
p5111
F1.0
sS'vehicles or carriages'
p5112
F1.0
sS'and noble ,'
p5113
F1.0
sS'if you still'
p5114
F1.0
sS', to you'
p5115
F0.125
sS'watching me as'
p5116
F1.0
sS'could see nothing'
p5117
F1.0
sS'all in the'
p5118
F0.5
sS'fact is attested'
p5119
F1.0
sS'that just as'
p5120
F1.0
sS'vast ships of'
p5121
F1.0
sS'that force and'
p5122
F1.0
sS'there , rastin'
p5123
F1.0
sS'also a rounded'
p5124
F1.0
sS'were saying. "'
p5125
F1.0
sS'as he continued.'
p5126
F0.25
sS'when we landed'
p5127
F0.5
sS'figure , and'
p5128
F1.0
sS'and lorentz. i'
p5129
F1.0
sS'i was by'
p5130
F0.09090909090909091
sS'many witnesses that'
p5131
F1.0
sS'though to different'
p5132
F0.5
sS'said that it'
p5133
F0.1
sS', has been'
p5134
F1.0
sS'such as loadstones'
p5135
F0.5
sS'mused. " a'
p5136
F1.0
sS'at them. "'
p5137
F1.0
sS'yet seen ,'
p5138
F1.0
sS'of cloth. "'
p5139
F1.0
sS'of what they'
p5140
F0.5
sS'through a clear'
p5141
F0.5
sS'our men of'
p5142
F1.0
sS', with an'
p5143
F0.3333333333333333
sS'that they must'
p5144
F0.14285714285714285
sS'him. " \'henri'
p5145
F1.0
sS"'messieurs , '"
p5146
F1.0
sS'for a moment'
p5147
F0.5
sS'tell such a'
p5148
F1.0
sS'man would be'
p5149
F1.0
sS'me in a'
p5150
F1.0
sS'long stone-walled ,'
p5151
F1.0
sS'out of them'
p5152
F0.2
sS'its floor ,'
p5153
F1.0
sS'by then ,'
p5154
F1.0
sS'before its shock'
p5155
F1.0
sS'in a strange'
p5156
F0.14285714285714285
sS'and forty-four ,'
p5157
F0.5
sS'the coming of'
p5158
F1.0
sS'as man never'
p5159
F0.5
sS'the early morning'
p5160
F1.0
sS'glare was like'
p5161
F1.0
sS'thicourt said ,'
p5162
F1.0
sS'done in some'
p5163
F1.0
sS'out of your'
p5164
F0.2
sS'so swiftly that'
p5165
F1.0
sS'were many men.'
p5166
F0.2
sS'found it was'
p5167
F1.0
sS'the glass tubes'
p5168
F0.5
sS'used to jerk'
p5169
F0.5
sS'in that city'
p5170
F0.16666666666666666
sS'said. " \'but'
p5171
F0.2
sS'those things and'
p5172
F1.0
sS'the soldiers or'
p5173
F1.0
sS'that he be'
p5174
F0.3333333333333333
sS'me then out'
p5175
F1.0
sS'room. they began'
p5176
F1.0
sS'and falling at'
p5177
F1.0
sS'of knowledge had'
p5178
F0.2
sS'the writing was'
p5179
F1.0
sS'force and applied'
p5180
F0.5
sS'a field at'
p5181
F1.0
sS'there without visible'
p5182
F1.0
sS'ye become gods'
p5183
F1.0
sS'french they were'
p5184
F1.0
sS'be a mere'
p5185
F0.5
sS'and , when'
p5186
F0.5
sS'air about us'
p5187
F1.0
sS'and read from'
p5188
F1.0
sS'was not in'
p5189
F0.25
sS'the marvels they'
p5190
F1.0
sS'i yield to'
p5191
F1.0
sS'and oxen could'
p5192
F1.0
sS'! and they'
p5193
F1.0
sS'and i shook'
p5194
F0.1
sS'now by many'
p5195
F1.0
sS'as though from'
p5196
F0.125
sS'" we entered'
p5197
F0.3333333333333333
sS'of the earth'
p5198
F0.03125
sS'many days ,'
p5199
F1.0
sS'parchment accusation and'
p5200
F1.0
sS'in a smooth'
p5201
F0.14285714285714285
sS'never dreamed of'
p5202
F1.0
sS'in the picture'
p5203
F0.04
sS'seen by these'
p5204
F1.0
sS'showed other mighty'
p5205
F1.0
sS'before us ,'
p5206
F1.0
sS'your 00th-century paris.'
p5207
F1.0
sS'reverse that rotation'
p5208
F1.0
sS'own time across'
p5209
F0.25
sS'smooth and white'
p5210
F0.3333333333333333
sS'adjudge you a'
p5211
F1.0
sS'and death to'
p5212
F1.0
sS'as best they'
p5213
F1.0
sS'and fro selling'
p5214
F0.14285714285714285
sS'all sides. and'
p5215
F1.0
sS'not be afraid'
p5216
F1.0
sS', to see'
p5217
F0.125
sS'that the man'
p5218
F0.125
sS', another thunderclap'
p5219
F1.0
sS'some seemed of'
p5220
F1.0
sS'everywhere in it'
p5221
F1.0
sS'them across the'
p5222
F1.0
sS'i heard ,'
p5223
F0.25
sS'had a raised'
p5224
F1.0
sS', yet he'
p5225
F0.14285714285714285
sS'this , i'
p5226
F0.5
sS'grating of heavy'
p5227
F1.0
sS'they were studied'
p5228
F0.09090909090909091
sS'littered the crude'
p5229
F1.0
sS'there and one'
p5230
F1.0
sS'was , with'
p5231
F1.0
sS'lights were everywhere'
p5232
F1.0
sS'room as i'
p5233
F0.5
sS'passing through the'
p5234
F1.0
sS'covered with lettering.'
p5235
F1.0
sS'in the dirt'
p5236
F0.04
sS'humming came from'
p5237
F1.0
sS'drab tunic and'
p5238
F1.0
sS'toward another lever.'
p5239
F1.0
sS'was nothing. and'
p5240
F1.0
sS'vehicles were moving'
p5241
F1.0
sS'\' " i'
p5242
F0.08333333333333333
sS'talking one to'
p5243
F1.0
sS'only to the'
p5244
F1.0
sS'and let me'
p5245
F1.0
sS'rastin. " \'but'
p5246
F1.0
sS'you may bring'
p5247
F0.5
sS'sire , i'
p5248
F0.5
sS'instrument as though'
p5249
F1.0
sS', rastin and'
p5250
F0.3333333333333333
sS'the levers and'
p5251
F0.5
sS'of surely ,'
p5252
F1.0
sS'had heard the'
p5253
F0.5
sS'also , and'
p5254
F1.0
sS'" they saw'
p5255
F0.125
sS'the window at'
p5256
F1.0
sS'fettered. [ illustration'
p5257
F1.0
sS'and white and'
p5258
F1.0
sS", ' thicourt"
p5259
F0.16666666666666666
sS'-- all these'
p5260
F1.0
sS'in this year'
p5261
F1.0
sS'they began to'
p5262
F1.0
sS'their force and'
p5263
F1.0
sS'time of theirs.'
p5264
F0.3333333333333333
sS'of wire connected'
p5265
F1.0
sS'from first to'
p5266
F1.0
sS'-- men who'
p5267
F1.0
sS'anything there be'
p5268
F1.0
sS'other blasphemies before'
p5269
F1.0
sS'set the seal'
p5270
F1.0
sS'asked rastin. "'
p5271
F1.0
sS'then ceased to'
p5272
F1.0
sS'entered the room'
p5273
F1.0
sS'us and then'
p5274
F1.0
sS'point at both'
p5275
F1.0
sS'machines with the'
p5276
F1.0
sS'understand. others were'
p5277
F1.0
sS'and his minions'
p5278
F0.3333333333333333
sS'me and at'
p5279
F0.3333333333333333
sS'thing like a'
p5280
F1.0
sS'reached the field'
p5281
F1.0
sS'the car flew'
p5282
F0.25
sS', yet when'
p5283
F0.14285714285714285
sS'us. a mighty'
p5284
F1.0
sS'post , with'
p5285
F1.0
sS', turning all'
p5286
F1.0
sS'utter the blasphemies'
p5287
F1.0
sS'opening also. i'
p5288
F1.0
sS'might dig in'
p5289
F1.0
sS'me staring at'
p5290
F1.0
sS'it showed great'
p5291
F1.0
sS'two men were'
p5292
F1.0
sS'you can advance'
p5293
F0.5
sS'it again ,'
p5294
F1.0
sS'not believe ,'
p5295
F0.3333333333333333
sS'all , sire'
p5296
F1.0
sS'rotated nothing but'
p5297
F1.0
sS'right force were'
p5298
F1.0
sS'their glare was'
p5299
F1.0
sS'knew that a'
p5300
F0.5
sS'you a sorcerer'
p5301
F1.0
sS'a way that'
p5302
F0.5
sS'it in a'
p5303
F1.0
sS'moved in the'
p5304
F1.0
sS', that rushed'
p5305
F0.1111111111111111
sS'diabolical conjurations ,'
p5306
F1.0
sS'did vanish entirely'
p5307
F1.0
sS'or machines of'
p5308
F1.0
sS'paris of our'
p5309
F1.0
sS'great circle of'
p5310
F1.0
sS', and though'
p5311
F0.025
sS'a sorcerer and'
p5312
F0.16666666666666666
sS'glad. glad that'
p5313
F1.0
sS'were bending over'
p5314
F1.0
sS"'still i must"
p5315
F1.0
sS'knights or squires'
p5316
F1.0
sS'of my life'
p5317
F0.3333333333333333
sS'i have told'
p5318
F0.25
sS'brought forward one'
p5319
F1.0
sS'were flying !'
p5320
F1.0
sS'glance shifted along'
p5321
F1.0
sS'remained. my mind'
p5322
F1.0
sS'of the vehicles'
p5323
F0.03125
sS'flying-cars and great'
p5324
F1.0
sS'other as they'
p5325
F1.0
sS'stone-walled , torchlit'
p5326
F1.0
sS'higher we went.'
p5327
F1.0
sS'the french i'
p5328
F1.0
sS'diabolical origin ,'
p5329
F1.0
sS'clear voice. "'
p5330
F1.0
sS'crazy fancies. they'
p5331
F1.0
sS'conjurations , when'
p5332
F1.0
sS'but now ,'
p5333
F1.0
sS'as a sorcerer'
p5334
F0.5
sS'streets and ways'
p5335
F0.3333333333333333
sS'round the sun.'
p5336
F1.0
sS'extraordinary of the'
p5337
F1.0
sS'unalterable , unchanging'
p5338
F1.0
sS'to delve into'
p5339
F1.0
sS'were evidently caused'
p5340
F1.0
sS"'what year is"
p5341
F1.0
sS'like myself ,'
p5342
F1.0
sS'thunderclap was heard'
p5343
F1.0
sS"answered. 'we are"
p5344
F1.0
sS'said that they'
p5345
F0.1
sS'of the vehicle.'
p5346
F0.03125
sS'if but for'
p5347
F1.0
sS'send him back'
p5348
F1.0
sS'dig in days.'
p5349
F1.0
sS'" one big'
p5350
F0.5
sS'a sorcerer if'
p5351
F0.16666666666666666
sS'and the said'
p5352
F0.07142857142857142
sS', they were'
p5353
F0.25
sS'the world ,'
p5354
F1.0
sS'turning ceased. they'
p5355
F1.0
sS'me that their'
p5356
F0.3333333333333333
sS'faster and faster'
p5357
F1.0
sS'like our sun'
p5358
F1.0
sS'gravely on with'
p5359
F1.0
sS'you the future.'
p5360
F1.0
sS'to the other'
p5361
F0.058823529411764705
sS'the dead speak'
p5362
F0.5
sS'levers and buttons'
p5363
F1.0
sS'a great thing'
p5364
F0.14285714285714285
sS'the floor and'
p5365
F0.5
sS'they touched a'
p5366
F0.3333333333333333
sS'" the pictures'
p5367
F0.2
sS'that time and'
p5368
F1.0
sS'to be --'
p5369
F0.16666666666666666
sS'it a ship'
p5370
F0.5
sS'it and twice'
p5371
F0.25
sS'and there thicourt'
p5372
F0.3333333333333333
sS'they bent toward'
p5373
F0.5
sS'swiftly through the'
p5374
F1.0
sS'away almost to'
p5375
F1.0
sS'fearful , but'
p5376
F0.5
sS'had happened through'
p5377
F0.5
sS'thunderclap come as'
p5378
F1.0
sS'looked up for'
p5379
F1.0
sS', part of'
p5380
F1.0
sS'from the ship'
p5381
F0.06666666666666667
sS'found myself. "'
p5382
F0.3333333333333333
sS'death to fly'
p5383
F1.0
sS'after we had'
p5384
F1.0
sS'* " sire'
p5385
F0.25
sS'time across five'
p5386
F1.0
sS'all dressed in'
p5387
F1.0
sS'met ! one'
p5388
F1.0
sS'knowledge had found'
p5389
F1.0
sS'" the huge'
p5390
F0.2
sS', though i'
p5391
F0.3333333333333333
sS'enough of these'
p5392
F1.0
sS'and thicourt in'
p5393
F0.16666666666666666
sS'saw marvels in'
p5394
F1.0
sS'that it were'
p5395
F0.25
sS'tense. " then'
p5396
F1.0
sS'planned. then came'
p5397
F1.0
sS'into a babble'
p5398
F0.5
sS'was not darkness'
p5399
F0.25
sS'do , and'
p5400
F1.0
sS'blood , yet'
p5401
F1.0
sS'slowly , so'
p5402
F0.5
sS"'we are simply"
p5403
F1.0
sS'out of the'
p5404
F0.2
sS'the king by'
p5405
F0.3333333333333333
sS'eyes before its'
p5406
F1.0
sS'a man might'
p5407
F0.3333333333333333
sS'uproar , i'
p5408
F1.0
sS'morning to the'
p5409
F1.0
sS'parchment. " it'
p5410
F1.0
sS"'you believe now"
p5411
F1.0
sS'man between them'
p5412
F1.0
sS'! i too'
p5413
F0.2
sS'not understand. others'
p5414
F0.25
sS'at the walk'
p5415
F0.07692307692307693
sS'a wheel on'
p5416
F0.5
sS'force and so'
p5417
F0.5
sS'ceiling. " they'
p5418
F1.0
sS'he was observed'
p5419
F0.3333333333333333
sS'it too began'
p5420
F1.0
sS'it seemed to'
p5421
F0.3333333333333333
sS'it was not.'
p5422
F0.045454545454545456
sS'a post ,'
p5423
F1.0
sS'reached out from'
p5424
F1.0
sS'a word here'
p5425
F0.3333333333333333
sS'understand. i only'
p5426
F0.5
sS'shown me !'
p5427
F1.0
sS'it and sat'
p5428
F0.25
sS'marselait read calmly'
p5429
F1.0
sS'earths like it'
p5430
F1.0
sS'before the ship'
p5431
F0.5
sS'covered my tunic'
p5432
F1.0
sS'on it that'
p5433
F0.25
sS'i felt ,'
p5434
F0.25
sS'beneath and i'
p5435
F1.0
sS'not fearful ,'
p5436
F1.0
sS'was not. the'
p5437
F1.0
sS'double-blade began to'
p5438
F1.0
sS'a voice came'
p5439
F1.0
sS'but hours before.'
p5440
F1.0
sS'brooded for a'
p5441
F1.0
sS'his ? the'
p5442
F1.0
sS'about us ,'
p5443
F1.0
sS'city that lay'
p5444
F1.0
sS'sun was greater'
p5445
F1.0
sS"unchanging ? '"
p5446
F1.0
sS"'s center as"
p5447
F0.5
sS'henri , you'
p5448
F0.3333333333333333
sS'so many new'
p5449
F1.0
sS'fly thus ,'
p5450
F1.0
sS'woman singing ,'
p5451
F1.0
sS'thus , if'
p5452
F1.0
sS'machines of some'
p5453
F1.0
sS'dazed. the two'
p5454
F1.0
sS'eyes to look'
p5455
F0.5
sS'vanished from view.'
p5456
F1.0
sS'had brought me'
p5457
F1.0
sS'to scale heaven'
p5458
F1.0
sS"field 's center"
p5459
F0.5
sS'waited in it'
p5460
F1.0
sS'you are five'
p5461
F0.5
sS'witnesses that for'
p5462
F1.0
sS'the city of'
p5463
F0.25
sS'and thicourt laughed'
p5464
F0.16666666666666666
sS'read , "'
p5465
F1.0
sS'metal , seemed'
p5466
F1.0
sS'man , henri'
p5467
F0.5
sS'and they screamed'
p5468
F0.16666666666666666
sS'again , rastin'
p5469
F0.3333333333333333
sS'to break around'
p5470
F1.0
sS'thick curl of'
p5471
F1.0
sS'to rush forward.'
p5472
F1.0
sS'face. neither of'
p5473
F1.0
sS'without sails or'
p5474
F1.0
sS'i heard the'
p5475
F0.25
sS'though to scale'
p5476
F0.5
sS'least , was'
p5477
F1.0
sS'and fro ,'
p5478
F0.14285714285714285
sS'that one seemed'
p5479
F0.5
sS'did not ,'
p5480
F0.16666666666666666
sS'the devil and'
p5481
F1.0
sS'the walkers draw'
p5482
F1.0
sS'it was what'
p5483
F0.045454545454545456
sS'the air around'
p5484
F0.16666666666666666
sS'place. but i'
p5485
F1.0
sS'from near the'
p5486
F1.0
sS'would. rastin turned'
p5487
F1.0
sS'" i found'
p5488
F0.1111111111111111
sS', upon the'
p5489
F1.0
sS'gods or devils'
p5490
F1.0
sS'" one of'
p5491
F0.5
sS'week later that'
p5492
F1.0
sS'they said then'
p5493
F0.25
sS'the crude desk'
p5494
F1.0
sS'of death by'
p5495
F1.0
sS'" the news'
p5496
F0.2
sS'but excited at'
p5497
F1.0
sS'thunder have been'
p5498
F1.0
sS'and we got'
p5499
F0.2
sS'would seem to'
p5500
F1.0
sS', on which'
p5501
F1.0
sS'this object and'
p5502
F1.0
sS', a few'
p5503
F0.25
sS'out , coming'
p5504
F1.0
sS'yet excited too.'
p5505
F1.0
sS'asked. " \'in'
p5506
F0.5
sS'" was there'
p5507
F1.0
sS'king and priest'
p5508
F1.0
sS'the opening of'
p5509
F1.0
sS', that one'
p5510
F0.1111111111111111
sS'the end. a'
p5511
F1.0
sS'thunderclaps that had'
p5512
F1.0
sS'and sky ,'
p5513
F1.0
sS'for hours into'
p5514
F1.0
sS'i only knew'
p5515
F1.0
sS'attested by many'
p5516
F1.0
sS'the horizons below'
p5517
F1.0
sS'all in it'
p5518
F0.5
sS'soon that it'
p5519
F1.0
sS', i felt'
p5520
F0.08333333333333333
sS'we passed on'
p5521
F1.0
sS'halt them. "'
p5522
F1.0
sS'that of scores'
p5523
F0.5
sS'! lights were'
p5524
F1.0
sS'me but others'
p5525
F1.0
sS'be rotated from'
p5526
F1.0
sS'i saw. is'
p5527
F1.0
sS'look from that'
p5528
F1.0
sS'like water. others'
p5529
F1.0
sS'rastin said that'
p5530
F1.0
sS'not understand. i'
p5531
F0.25
sS'hundreds of leagues'
p5532
F0.25
sS'as man can'
p5533
F0.5
sS'my life ,'
p5534
F1.0
sS'before. i wonder'
p5535
F0.3333333333333333
sS'as i watched'
p5536
F0.2
sS'yet neither of'
p5537
F1.0
sS'sailed to and'
p5538
F1.0
sS'with so many'
p5539
F1.0
sS'i describe what'
p5540
F1.0
sS'the men who'
p5541
F0.5
sS', the fourth'
p5542
F0.1111111111111111
sS'and heard him'
p5543
F1.0
sS'i saw five'
p5544
F0.08333333333333333
sS'many of the'
p5545
F0.3333333333333333
sS'them to me'
p5546
F0.5
sS'disputing about me.'
p5547
F1.0
sS'room were tense'
p5548
F0.5
sS"' all cried."
p5549
F1.0
sS'at least of'
p5550
F0.5
sS'examinations i had'
p5551
F1.0
sS'thus ? *'
p5552
F1.0
sS'laid down the'
p5553
F1.0
sS'outskirts of paris'
p5554
F1.0
sS'men might do'
p5555
F0.5
sS'sight before my'
p5556
F1.0
sS'terribly afraid ,'
p5557
F1.0
sS'would ever tell'
p5558
F1.0
sS'had rotated nothing'
p5559
F1.0
sS'of them came'
p5560
F0.125
sS'brain reeled at'
p5561
F1.0
sS'me up ,'
p5562
F1.0
sS'use force to'
p5563
F1.0
sS'i had seen'
p5564
F0.05263157894736842
sS'moving swiftly through'
p5565
F1.0
sS'and sat side'
p5566
F1.0
sS'it was night'
p5567
F0.045454545454545456
sS'late afternoon by'
p5568
F1.0
sS'marselait laid down'
p5569
F1.0
sS'future. glad that'
p5570
F1.0
sS'and then ceased'
p5571
F0.1
sS'size , and'
p5572
F1.0
sS'! " there'
p5573
F0.1
sS'yet he seemed'
p5574
F1.0
sS'of them. great'
p5575
F1.0
sS'had sought to'
p5576
F1.0
sS'entered again their'
p5577
F1.0
sS'the fourth measurement'
p5578
F1.0
sS'great airships were'
p5579
F1.0
sS'half-whispered , "'
p5580
F1.0
sS'touch a button'
p5581
F1.0
sS'like a double-oar'
p5582
F0.3333333333333333
sS'glimpsed people gazing'
p5583
F1.0
sS'hat of grotesque'
p5584
F1.0
sS'and then told'
p5585
F0.1
sS'rastin , kindly'
p5586
F0.2
sS'did so and'
p5587
F1.0
sS'skies that they'
p5588
F1.0
sS'! glad that'
p5589
F1.0
sS"'s outskirts. i"
p5590
F1.0
sS'sat in seats'
p5591
F1.0
sS'there to hear'
p5592
F1.0
sS'brightly now by'
p5593
F1.0
sS'how is it'
p5594
F1.0
sS'was not the'
p5595
F0.25
sS'five centuries in'
p5596
F0.3333333333333333
sS'that i saw'
p5597
F0.1
sS'noble , having'
p5598
F0.5
sS'like that from'
p5599
F0.5
sS'strange and diabolical'
p5600
F0.5
sS'great mechanisms that'
p5601
F1.0
sS'spot at that'
p5602
F1.0
sS'asked. " \'still'
p5603
F0.5
sS'simply scientists ,'
p5604
F1.0
sS'last rastin and'
p5605
F1.0
sS'my eyes. i'
p5606
F1.0
sS'see it. then'
p5607
F1.0
sS'right to go'
p5608
F1.0
sS'darting to and'
p5609
F1.0
sS'people gazing out'
p5610
F1.0
sS'were studied ,'
p5611
F1.0
sS'of men and'
p5612
F1.0
sS'took me first'
p5613
F0.5
sS'it i passed'
p5614
F1.0
sS'madness ! the'
p5615
F1.0
sS'so. " all'
p5616
F1.0
sS'some day be.'
p5617
F0.5
sS'heaven frowns when'
p5618
F1.0
sS'issued , to'
p5619
F1.0
sS'showed that all'
p5620
F1.0
sS'i seemed on'
p5621
F1.0
sS'did not understand'
p5622
F0.16666666666666666
sS'thicourt pressed more'
p5623
F1.0
sS'placed a black'
p5624
F1.0
sS'of paris ,'
p5625
F0.5
sS', holding thousands'
p5626
F1.0
sS'to go in'
p5627
F0.25
sS'now , my'
p5628
F0.25
sS'studied , their'
p5629
F1.0
sS'turned faster than'
p5630
F1.0
sS'that they had'
p5631
F0.14285714285714285
sS'future_. " and'
p5632
F1.0
sS'-- terrible --'
p5633
F1.0
sS'up from the'
p5634
F1.0
sS'metal from them'
p5635
F1.0
sS'i was eager'
p5636
F0.09090909090909091
sS'terrific clap of'
p5637
F1.0
sS'as though carven'
p5638
F0.125
sS'have set the'
p5639
F1.0
sS', to be'
p5640
F0.125
sS'one nor the'
p5641
F1.0
sS'looking through a'
p5642
F1.0
sS'began to rush'
p5643
F0.14285714285714285
sS'me. i asked'
p5644
F0.5
sS'animal pulling or'
p5645
F1.0
sS'and words that'
p5646
F1.0
sS'now , slowly'
p5647
F0.25
sS'swiftly that i'
p5648
F1.0
sS'of the soldiers'
p5649
F0.03125
sS'burst of sound.'
p5650
F1.0
sS'asked who was'
p5651
F1.0
sS'those streets of'
p5652
F1.0
sS'challenged my right'
p5653
F1.0
sS'circle of metal'
p5654
F0.3333333333333333
sS'these men as'
p5655
F1.0
sS', and his'
p5656
F0.025
sS'between the two'
p5657
F0.5
sS'must try to'
p5658
F1.0
sS'at last rastin'
p5659
F0.5
sS'i saw a'
p5660
F0.08333333333333333
sS'and there before'
p5661
F0.3333333333333333
sS'landed there ,'
p5662
F1.0
sS', but finally'
p5663
F0.07692307692307693
sS'greatly excited ,'
p5664
F1.0
sS'seemed disputing about'
p5665
F1.0
sS'" how can'
p5666
F1.0
sS'the cloak and'
p5667
F1.0
sS'noble , and'
p5668
F0.5
sS'snarls or moans'
p5669
F1.0
sS'living voices !'
p5670
F1.0
sS'the light in'
p5671
F0.5
sS'thunderclap and with'
p5672
F0.5
sS'moments there came'
p5673
F1.0
sS'time in that'
p5674
F1.0
sS'or squires ,'
p5675
F1.0
sS'i saw !'
p5676
F0.08333333333333333
sS'wheel and around'
p5677
F1.0
sS'button beneath it.'
p5678
F1.0
sS'for it seemed'
p5679
F1.0
sS'them came a'
p5680
F0.5
sS'i waited in'
p5681
F1.0
sS'" \'we have'
p5682
F0.5
sS'great numbers of'
p5683
F1.0
sS'go in the'
p5684
F1.0
sS'very comfortable chair.'
p5685
F1.0
sS'blue light came'
p5686
F1.0
sS'thing unalterable ,'
p5687
F1.0
sS'quite ignorant of.'
p5688
F1.0
sS', sometime ,'
p5689
F1.0
sS'saw now that'
p5690
F1.0
sS'a fascination that'
p5691
F1.0
sS'a thing surely'
p5692
F0.3333333333333333
sS'assistant. it was'
p5693
F1.0
sS'oxen could not'
p5694
F1.0
sS'in the part'
p5695
F0.04
sS'i saw other'
p5696
F0.08333333333333333
sS'button again ,'
p5697
F1.0
sS'the button again'
p5698
F1.0
sS'that the church'
p5699
F0.125
sS'cried the first.'
p5700
F1.0
sS'was different. they'
p5701
F1.0
sS', watching me'
p5702
F1.0
sS'to tell them'
p5703
F0.25
sS'at last !'
p5704
F0.5
sS'me. some were'
p5705
F1.0
sS'to jerk you'
p5706
F1.0
sS', seeing me'
p5707
F0.5
sS'machines. " in'
p5708
F1.0
sS'about me. "'
p5709
F0.5
sS'toward which all'
p5710
F1.0
sS'\' " \'nonsense'
p5711
F0.08333333333333333
sS'was shouting excitedly.'
p5712
F1.0
sS', and again'
p5713
F0.025
sS'the two were'
p5714
F0.25
sS'the lightning in'
p5715
F0.5
sS"rastin smiled. 'you"
p5716
F1.0
sS'hours into the'
p5717
F1.0
sS'separated from him'
p5718
F1.0
sS"'we 'll take"
p5719
F1.0
sS', but that'
p5720
F0.07692307692307693
sS'soldiers or the'
p5721
F1.0
sS'and gave me'
p5722
F1.0
sS'as strange a'
p5723
F1.0
sS'touched the button'
p5724
F0.5
sS'time to be'
p5725
F0.2
sS'said. " rastin'
p5726
F0.2
sS'light came from'
p5727
F1.0
sS'time -- what'
p5728
F1.0
sS'wonders that they'
p5729
F1.0
sS'it. they said'
p5730
F0.5
sS'his own time'
p5731
F0.5
sS'walks were rushing'
p5732
F1.0
sS'laughed , and'
p5733
F1.0
sS'such things be'
p5734
F1.0
sS'the other man.'
p5735
F0.14285714285714285
sS'both greatly excited'
p5736
F1.0
sS'sounded. " i'
p5737
F1.0
sS'sound that did'
p5738
F1.0
sS'watching very closely.'
p5739
F1.0
sS'seated me in'
p5740
F1.0
sS'men like myself'
p5741
F1.0
sS'gathered around the'
p5742
F1.0
sS'field from which'
p5743
F1.0
sS'what year --'
p5744
F1.0
sS'curious. they said'
p5745
F1.0
sS'staggered back to'
p5746
F1.0
sS'saw a great'
p5747
F1.0
sS'i heard again'
p5748
F0.25
sS'some fled when'
p5749
F1.0
sS'i had sought'
p5750
F0.05263157894736842
sS'and smaller ships'
p5751
F1.0
sS'themselves alive !'
p5752
F1.0
sS'lothiere did state'
p5753
F0.5
sS', but there'
p5754
F0.07692307692307693
sS'as that one.'
p5755
F1.0
sS'spot from the'
p5756
F1.0
sS'move or rotate'
p5757
F1.0
sS'they entered the'
p5758
F1.0
sS'time , henri'
p5759
F0.25
sS'i looked out.'
p5760
F0.2
sS"the city 's"
p5761
F0.25
sS'and were watching'
p5762
F0.3333333333333333
sS'of glass so'
p5763
F1.0
sS'as the man'
p5764
F1.0
sS'of leagues with'
p5765
F0.3333333333333333
sS'the field during'
p5766
F0.125
sS'before i had'
p5767
F1.0
sS'fear. i was'
p5768
F1.0
sS'for long that'
p5769
F1.0
sS'fro also ,'
p5770
F1.0
sS'for. \' "'
p5771
F1.0
sS'them , the'
p5772
F0.2
sS'of the city'
p5773
F0.03125
sS'metal inset in'
p5774
F1.0
sS'felt myself whirling'
p5775
F0.5
s.